
/usr/bin/gcc:     file format elf64-x86-64


Disassembly of section .init:

0000000000401908 <.init>:
  401908:	48 83 ec 08          	sub    $0x8,%rsp
  40190c:	e8 fb 95 00 00       	callq  40af0c <error+0x8f8d>
  401911:	e8 8a 96 00 00       	callq  40afa0 <error+0x9021>
  401916:	e8 55 b4 01 00       	callq  41cd70 <error+0x1adf1>
  40191b:	48 83 c4 08          	add    $0x8,%rsp
  40191f:	c3                   	retq   

Disassembly of section .plt:

0000000000401920 <__fsetlocking@plt-0x10>:
  401920:	ff 35 22 db 23 00    	pushq  0x23db22(%rip)        # 63f448 <error+0x23d4c9>
  401926:	ff 25 24 db 23 00    	jmpq   *0x23db24(%rip)        # 63f450 <error+0x23d4d1>
  40192c:	0f 1f 40 00          	nopl   0x0(%rax)

0000000000401930 <__fsetlocking@plt>:
  401930:	ff 25 22 db 23 00    	jmpq   *0x23db22(%rip)        # 63f458 <error+0x23d4d9>
  401936:	68 00 00 00 00       	pushq  $0x0
  40193b:	e9 e0 ff ff ff       	jmpq   401920 <__fsetlocking@plt-0x10>

0000000000401940 <dup2@plt>:
  401940:	ff 25 1a db 23 00    	jmpq   *0x23db1a(%rip)        # 63f460 <error+0x23d4e1>
  401946:	68 01 00 00 00       	pushq  $0x1
  40194b:	e9 d0 ff ff ff       	jmpq   401920 <__fsetlocking@plt-0x10>

0000000000401950 <printf@plt>:
  401950:	ff 25 12 db 23 00    	jmpq   *0x23db12(%rip)        # 63f468 <error+0x23d4e9>
  401956:	68 02 00 00 00       	pushq  $0x2
  40195b:	e9 c0 ff ff ff       	jmpq   401920 <__fsetlocking@plt-0x10>

0000000000401960 <execv@plt>:
  401960:	ff 25 0a db 23 00    	jmpq   *0x23db0a(%rip)        # 63f470 <error+0x23d4f1>
  401966:	68 03 00 00 00       	pushq  $0x3
  40196b:	e9 b0 ff ff ff       	jmpq   401920 <__fsetlocking@plt-0x10>

0000000000401970 <ftell@plt>:
  401970:	ff 25 02 db 23 00    	jmpq   *0x23db02(%rip)        # 63f478 <error+0x23d4f9>
  401976:	68 04 00 00 00       	pushq  $0x4
  40197b:	e9 a0 ff ff ff       	jmpq   401920 <__fsetlocking@plt-0x10>

0000000000401980 <close@plt>:
  401980:	ff 25 fa da 23 00    	jmpq   *0x23dafa(%rip)        # 63f480 <error+0x23d501>
  401986:	68 05 00 00 00       	pushq  $0x5
  40198b:	e9 90 ff ff ff       	jmpq   401920 <__fsetlocking@plt-0x10>

0000000000401990 <abort@plt>:
  401990:	ff 25 f2 da 23 00    	jmpq   *0x23daf2(%rip)        # 63f488 <error+0x23d509>
  401996:	68 06 00 00 00       	pushq  $0x6
  40199b:	e9 80 ff ff ff       	jmpq   401920 <__fsetlocking@plt-0x10>

00000000004019a0 <nl_langinfo@plt>:
  4019a0:	ff 25 ea da 23 00    	jmpq   *0x23daea(%rip)        # 63f490 <error+0x23d511>
  4019a6:	68 07 00 00 00       	pushq  $0x7
  4019ab:	e9 70 ff ff ff       	jmpq   401920 <__fsetlocking@plt-0x10>

00000000004019b0 <puts@plt>:
  4019b0:	ff 25 e2 da 23 00    	jmpq   *0x23dae2(%rip)        # 63f498 <error+0x23d519>
  4019b6:	68 08 00 00 00       	pushq  $0x8
  4019bb:	e9 60 ff ff ff       	jmpq   401920 <__fsetlocking@plt-0x10>

00000000004019c0 <fseek@plt>:
  4019c0:	ff 25 da da 23 00    	jmpq   *0x23dada(%rip)        # 63f4a0 <error+0x23d521>
  4019c6:	68 09 00 00 00       	pushq  $0x9
  4019cb:	e9 50 ff ff ff       	jmpq   401920 <__fsetlocking@plt-0x10>

00000000004019d0 <mkstemps@plt>:
  4019d0:	ff 25 d2 da 23 00    	jmpq   *0x23dad2(%rip)        # 63f4a8 <error+0x23d529>
  4019d6:	68 0a 00 00 00       	pushq  $0xa
  4019db:	e9 40 ff ff ff       	jmpq   401920 <__fsetlocking@plt-0x10>

00000000004019e0 <textdomain@plt>:
  4019e0:	ff 25 ca da 23 00    	jmpq   *0x23daca(%rip)        # 63f4b0 <error+0x23d531>
  4019e6:	68 0b 00 00 00       	pushq  $0xb
  4019eb:	e9 30 ff ff ff       	jmpq   401920 <__fsetlocking@plt-0x10>

00000000004019f0 <execvp@plt>:
  4019f0:	ff 25 c2 da 23 00    	jmpq   *0x23dac2(%rip)        # 63f4b8 <error+0x23d539>
  4019f6:	68 0c 00 00 00       	pushq  $0xc
  4019fb:	e9 20 ff ff ff       	jmpq   401920 <__fsetlocking@plt-0x10>

0000000000401a00 <exit@plt>:
  401a00:	ff 25 ba da 23 00    	jmpq   *0x23daba(%rip)        # 63f4c0 <error+0x23d541>
  401a06:	68 0d 00 00 00       	pushq  $0xd
  401a0b:	e9 10 ff ff ff       	jmpq   401920 <__fsetlocking@plt-0x10>

0000000000401a10 <strcasecmp@plt>:
  401a10:	ff 25 b2 da 23 00    	jmpq   *0x23dab2(%rip)        # 63f4c8 <error+0x23d549>
  401a16:	68 0e 00 00 00       	pushq  $0xe
  401a1b:	e9 00 ff ff ff       	jmpq   401920 <__fsetlocking@plt-0x10>

0000000000401a20 <bindtextdomain@plt>:
  401a20:	ff 25 aa da 23 00    	jmpq   *0x23daaa(%rip)        # 63f4d0 <error+0x23d551>
  401a26:	68 0f 00 00 00       	pushq  $0xf
  401a2b:	e9 f0 fe ff ff       	jmpq   401920 <__fsetlocking@plt-0x10>

0000000000401a30 <gettimeofday@plt>:
  401a30:	ff 25 a2 da 23 00    	jmpq   *0x23daa2(%rip)        # 63f4d8 <error+0x23d559>
  401a36:	68 10 00 00 00       	pushq  $0x10
  401a3b:	e9 e0 fe ff ff       	jmpq   401920 <__fsetlocking@plt-0x10>

0000000000401a40 <strsignal@plt>:
  401a40:	ff 25 9a da 23 00    	jmpq   *0x23da9a(%rip)        # 63f4e0 <error+0x23d561>
  401a46:	68 11 00 00 00       	pushq  $0x11
  401a4b:	e9 d0 fe ff ff       	jmpq   401920 <__fsetlocking@plt-0x10>

0000000000401a50 <read@plt>:
  401a50:	ff 25 92 da 23 00    	jmpq   *0x23da92(%rip)        # 63f4e8 <error+0x23d569>
  401a56:	68 12 00 00 00       	pushq  $0x12
  401a5b:	e9 c0 fe ff ff       	jmpq   401920 <__fsetlocking@plt-0x10>

0000000000401a60 <strncmp@plt>:
  401a60:	ff 25 8a da 23 00    	jmpq   *0x23da8a(%rip)        # 63f4f0 <error+0x23d571>
  401a66:	68 13 00 00 00       	pushq  $0x13
  401a6b:	e9 b0 fe ff ff       	jmpq   401920 <__fsetlocking@plt-0x10>

0000000000401a70 <malloc@plt>:
  401a70:	ff 25 82 da 23 00    	jmpq   *0x23da82(%rip)        # 63f4f8 <error+0x23d579>
  401a76:	68 14 00 00 00       	pushq  $0x14
  401a7b:	e9 a0 fe ff ff       	jmpq   401920 <__fsetlocking@plt-0x10>

0000000000401a80 <fopen@plt>:
  401a80:	ff 25 7a da 23 00    	jmpq   *0x23da7a(%rip)        # 63f500 <error+0x23d581>
  401a86:	68 15 00 00 00       	pushq  $0x15
  401a8b:	e9 90 fe ff ff       	jmpq   401920 <__fsetlocking@plt-0x10>

0000000000401a90 <__libc_start_main@plt>:
  401a90:	ff 25 72 da 23 00    	jmpq   *0x23da72(%rip)        # 63f508 <error+0x23d589>
  401a96:	68 16 00 00 00       	pushq  $0x16
  401a9b:	e9 80 fe ff ff       	jmpq   401920 <__fsetlocking@plt-0x10>

0000000000401aa0 <dup@plt>:
  401aa0:	ff 25 6a da 23 00    	jmpq   *0x23da6a(%rip)        # 63f510 <error+0x23d591>
  401aa6:	68 17 00 00 00       	pushq  $0x17
  401aab:	e9 70 fe ff ff       	jmpq   401920 <__fsetlocking@plt-0x10>

0000000000401ab0 <__uflow@plt>:
  401ab0:	ff 25 62 da 23 00    	jmpq   *0x23da62(%rip)        # 63f518 <error+0x23d599>
  401ab6:	68 18 00 00 00       	pushq  $0x18
  401abb:	e9 60 fe ff ff       	jmpq   401920 <__fsetlocking@plt-0x10>

0000000000401ac0 <unlink@plt>:
  401ac0:	ff 25 5a da 23 00    	jmpq   *0x23da5a(%rip)        # 63f520 <error+0x23d5a1>
  401ac6:	68 19 00 00 00       	pushq  $0x19
  401acb:	e9 50 fe ff ff       	jmpq   401920 <__fsetlocking@plt-0x10>

0000000000401ad0 <_obstack_newchunk@plt>:
  401ad0:	ff 25 52 da 23 00    	jmpq   *0x23da52(%rip)        # 63f528 <error+0x23d5a9>
  401ad6:	68 1a 00 00 00       	pushq  $0x1a
  401adb:	e9 40 fe ff ff       	jmpq   401920 <__fsetlocking@plt-0x10>

0000000000401ae0 <_exit@plt>:
  401ae0:	ff 25 4a da 23 00    	jmpq   *0x23da4a(%rip)        # 63f530 <error+0x23d5b1>
  401ae6:	68 1b 00 00 00       	pushq  $0x1b
  401aeb:	e9 30 fe ff ff       	jmpq   401920 <__fsetlocking@plt-0x10>

0000000000401af0 <sbrk@plt>:
  401af0:	ff 25 42 da 23 00    	jmpq   *0x23da42(%rip)        # 63f538 <error+0x23d5b9>
  401af6:	68 1c 00 00 00       	pushq  $0x1c
  401afb:	e9 20 fe ff ff       	jmpq   401920 <__fsetlocking@plt-0x10>

0000000000401b00 <getpid@plt>:
  401b00:	ff 25 3a da 23 00    	jmpq   *0x23da3a(%rip)        # 63f540 <error+0x23d5c1>
  401b06:	68 1d 00 00 00       	pushq  $0x1d
  401b0b:	e9 10 fe ff ff       	jmpq   401920 <__fsetlocking@plt-0x10>

0000000000401b10 <vfprintf@plt>:
  401b10:	ff 25 32 da 23 00    	jmpq   *0x23da32(%rip)        # 63f548 <error+0x23d5c9>
  401b16:	68 1e 00 00 00       	pushq  $0x1e
  401b1b:	e9 00 fe ff ff       	jmpq   401920 <__fsetlocking@plt-0x10>

0000000000401b20 <__strdup@plt>:
  401b20:	ff 25 2a da 23 00    	jmpq   *0x23da2a(%rip)        # 63f550 <error+0x23d5d1>
  401b26:	68 1f 00 00 00       	pushq  $0x1f
  401b2b:	e9 f0 fd ff ff       	jmpq   401920 <__fsetlocking@plt-0x10>

0000000000401b30 <fputc@plt>:
  401b30:	ff 25 22 da 23 00    	jmpq   *0x23da22(%rip)        # 63f558 <error+0x23d5d9>
  401b36:	68 20 00 00 00       	pushq  $0x20
  401b3b:	e9 e0 fd ff ff       	jmpq   401920 <__fsetlocking@plt-0x10>

0000000000401b40 <free@plt>:
  401b40:	ff 25 1a da 23 00    	jmpq   *0x23da1a(%rip)        # 63f560 <error+0x23d5e1>
  401b46:	68 21 00 00 00       	pushq  $0x21
  401b4b:	e9 d0 fd ff ff       	jmpq   401920 <__fsetlocking@plt-0x10>

0000000000401b50 <strlen@plt>:
  401b50:	ff 25 12 da 23 00    	jmpq   *0x23da12(%rip)        # 63f568 <error+0x23d5e9>
  401b56:	68 22 00 00 00       	pushq  $0x22
  401b5b:	e9 c0 fd ff ff       	jmpq   401920 <__fsetlocking@plt-0x10>

0000000000401b60 <ferror@plt>:
  401b60:	ff 25 0a da 23 00    	jmpq   *0x23da0a(%rip)        # 63f570 <error+0x23d5f1>
  401b66:	68 23 00 00 00       	pushq  $0x23
  401b6b:	e9 b0 fd ff ff       	jmpq   401920 <__fsetlocking@plt-0x10>

0000000000401b70 <__xstat@plt>:
  401b70:	ff 25 02 da 23 00    	jmpq   *0x23da02(%rip)        # 63f578 <error+0x23d5f9>
  401b76:	68 24 00 00 00       	pushq  $0x24
  401b7b:	e9 a0 fd ff ff       	jmpq   401920 <__fsetlocking@plt-0x10>

0000000000401b80 <fputs_unlocked@plt>:
  401b80:	ff 25 fa d9 23 00    	jmpq   *0x23d9fa(%rip)        # 63f580 <error+0x23d601>
  401b86:	68 25 00 00 00       	pushq  $0x25
  401b8b:	e9 90 fd ff ff       	jmpq   401920 <__fsetlocking@plt-0x10>

0000000000401b90 <__ctype_b_loc@plt>:
  401b90:	ff 25 f2 d9 23 00    	jmpq   *0x23d9f2(%rip)        # 63f588 <error+0x23d609>
  401b96:	68 26 00 00 00       	pushq  $0x26
  401b9b:	e9 80 fd ff ff       	jmpq   401920 <__fsetlocking@plt-0x10>

0000000000401ba0 <wcswidth@plt>:
  401ba0:	ff 25 ea d9 23 00    	jmpq   *0x23d9ea(%rip)        # 63f590 <error+0x23d611>
  401ba6:	68 27 00 00 00       	pushq  $0x27
  401bab:	e9 70 fd ff ff       	jmpq   401920 <__fsetlocking@plt-0x10>

0000000000401bb0 <realpath@plt>:
  401bb0:	ff 25 e2 d9 23 00    	jmpq   *0x23d9e2(%rip)        # 63f598 <error+0x23d619>
  401bb6:	68 28 00 00 00       	pushq  $0x28
  401bbb:	e9 60 fd ff ff       	jmpq   401920 <__fsetlocking@plt-0x10>

0000000000401bc0 <sprintf@plt>:
  401bc0:	ff 25 da d9 23 00    	jmpq   *0x23d9da(%rip)        # 63f5a0 <error+0x23d621>
  401bc6:	68 29 00 00 00       	pushq  $0x29
  401bcb:	e9 50 fd ff ff       	jmpq   401920 <__fsetlocking@plt-0x10>

0000000000401bd0 <mbstowcs@plt>:
  401bd0:	ff 25 d2 d9 23 00    	jmpq   *0x23d9d2(%rip)        # 63f5a8 <error+0x23d629>
  401bd6:	68 2a 00 00 00       	pushq  $0x2a
  401bdb:	e9 40 fd ff ff       	jmpq   401920 <__fsetlocking@plt-0x10>

0000000000401be0 <fdopen@plt>:
  401be0:	ff 25 ca d9 23 00    	jmpq   *0x23d9ca(%rip)        # 63f5b0 <error+0x23d631>
  401be6:	68 2b 00 00 00       	pushq  $0x2b
  401beb:	e9 30 fd ff ff       	jmpq   401920 <__fsetlocking@plt-0x10>

0000000000401bf0 <strrchr@plt>:
  401bf0:	ff 25 c2 d9 23 00    	jmpq   *0x23d9c2(%rip)        # 63f5b8 <error+0x23d639>
  401bf6:	68 2c 00 00 00       	pushq  $0x2c
  401bfb:	e9 20 fd ff ff       	jmpq   401920 <__fsetlocking@plt-0x10>

0000000000401c00 <pipe@plt>:
  401c00:	ff 25 ba d9 23 00    	jmpq   *0x23d9ba(%rip)        # 63f5c0 <error+0x23d641>
  401c06:	68 2d 00 00 00       	pushq  $0x2d
  401c0b:	e9 10 fd ff ff       	jmpq   401920 <__fsetlocking@plt-0x10>

0000000000401c10 <sleep@plt>:
  401c10:	ff 25 b2 d9 23 00    	jmpq   *0x23d9b2(%rip)        # 63f5c8 <error+0x23d649>
  401c16:	68 2e 00 00 00       	pushq  $0x2e
  401c1b:	e9 00 fd ff ff       	jmpq   401920 <__fsetlocking@plt-0x10>

0000000000401c20 <kill@plt>:
  401c20:	ff 25 aa d9 23 00    	jmpq   *0x23d9aa(%rip)        # 63f5d0 <error+0x23d651>
  401c26:	68 2f 00 00 00       	pushq  $0x2f
  401c2b:	e9 f0 fc ff ff       	jmpq   401920 <__fsetlocking@plt-0x10>

0000000000401c30 <strerror@plt>:
  401c30:	ff 25 a2 d9 23 00    	jmpq   *0x23d9a2(%rip)        # 63f5d8 <error+0x23d659>
  401c36:	68 30 00 00 00       	pushq  $0x30
  401c3b:	e9 e0 fc ff ff       	jmpq   401920 <__fsetlocking@plt-0x10>

0000000000401c40 <strstr@plt>:
  401c40:	ff 25 9a d9 23 00    	jmpq   *0x23d99a(%rip)        # 63f5e0 <error+0x23d661>
  401c46:	68 31 00 00 00       	pushq  $0x31
  401c4b:	e9 d0 fc ff ff       	jmpq   401920 <__fsetlocking@plt-0x10>

0000000000401c50 <strverscmp@plt>:
  401c50:	ff 25 92 d9 23 00    	jmpq   *0x23d992(%rip)        # 63f5e8 <error+0x23d669>
  401c56:	68 32 00 00 00       	pushq  $0x32
  401c5b:	e9 c0 fc ff ff       	jmpq   401920 <__fsetlocking@plt-0x10>

0000000000401c60 <strcat@plt>:
  401c60:	ff 25 8a d9 23 00    	jmpq   *0x23d98a(%rip)        # 63f5f0 <error+0x23d671>
  401c66:	68 33 00 00 00       	pushq  $0x33
  401c6b:	e9 b0 fc ff ff       	jmpq   401920 <__fsetlocking@plt-0x10>

0000000000401c70 <memcpy@plt>:
  401c70:	ff 25 82 d9 23 00    	jmpq   *0x23d982(%rip)        # 63f5f8 <error+0x23d679>
  401c76:	68 34 00 00 00       	pushq  $0x34
  401c7b:	e9 a0 fc ff ff       	jmpq   401920 <__fsetlocking@plt-0x10>

0000000000401c80 <putenv@plt>:
  401c80:	ff 25 7a d9 23 00    	jmpq   *0x23d97a(%rip)        # 63f600 <error+0x23d681>
  401c86:	68 35 00 00 00       	pushq  $0x35
  401c8b:	e9 90 fc ff ff       	jmpq   401920 <__fsetlocking@plt-0x10>

0000000000401c90 <signal@plt>:
  401c90:	ff 25 72 d9 23 00    	jmpq   *0x23d972(%rip)        # 63f608 <error+0x23d689>
  401c96:	68 36 00 00 00       	pushq  $0x36
  401c9b:	e9 80 fc ff ff       	jmpq   401920 <__fsetlocking@plt-0x10>

0000000000401ca0 <memmove@plt>:
  401ca0:	ff 25 6a d9 23 00    	jmpq   *0x23d96a(%rip)        # 63f610 <error+0x23d691>
  401ca6:	68 37 00 00 00       	pushq  $0x37
  401cab:	e9 70 fc ff ff       	jmpq   401920 <__fsetlocking@plt-0x10>

0000000000401cb0 <strchr@plt>:
  401cb0:	ff 25 62 d9 23 00    	jmpq   *0x23d962(%rip)        # 63f618 <error+0x23d699>
  401cb6:	68 38 00 00 00       	pushq  $0x38
  401cbb:	e9 60 fc ff ff       	jmpq   401920 <__fsetlocking@plt-0x10>

0000000000401cc0 <waitpid@plt>:
  401cc0:	ff 25 5a d9 23 00    	jmpq   *0x23d95a(%rip)        # 63f620 <error+0x23d6a1>
  401cc6:	68 39 00 00 00       	pushq  $0x39
  401ccb:	e9 50 fc ff ff       	jmpq   401920 <__fsetlocking@plt-0x10>

0000000000401cd0 <wait4@plt>:
  401cd0:	ff 25 52 d9 23 00    	jmpq   *0x23d952(%rip)        # 63f628 <error+0x23d6a9>
  401cd6:	68 3a 00 00 00       	pushq  $0x3a
  401cdb:	e9 40 fc ff ff       	jmpq   401920 <__fsetlocking@plt-0x10>

0000000000401ce0 <fread@plt>:
  401ce0:	ff 25 4a d9 23 00    	jmpq   *0x23d94a(%rip)        # 63f630 <error+0x23d6b1>
  401ce6:	68 3b 00 00 00       	pushq  $0x3b
  401ceb:	e9 30 fc ff ff       	jmpq   401920 <__fsetlocking@plt-0x10>

0000000000401cf0 <__fxstat@plt>:
  401cf0:	ff 25 42 d9 23 00    	jmpq   *0x23d942(%rip)        # 63f638 <error+0x23d6b9>
  401cf6:	68 3c 00 00 00       	pushq  $0x3c
  401cfb:	e9 20 fc ff ff       	jmpq   401920 <__fsetlocking@plt-0x10>

0000000000401d00 <getenv@plt>:
  401d00:	ff 25 3a d9 23 00    	jmpq   *0x23d93a(%rip)        # 63f640 <error+0x23d6c1>
  401d06:	68 3d 00 00 00       	pushq  $0x3d
  401d0b:	e9 10 fc ff ff       	jmpq   401920 <__fsetlocking@plt-0x10>

0000000000401d10 <_obstack_begin@plt>:
  401d10:	ff 25 32 d9 23 00    	jmpq   *0x23d932(%rip)        # 63f648 <error+0x23d6c9>
  401d16:	68 3e 00 00 00       	pushq  $0x3e
  401d1b:	e9 00 fc ff ff       	jmpq   401920 <__fsetlocking@plt-0x10>

0000000000401d20 <__errno_location@plt>:
  401d20:	ff 25 2a d9 23 00    	jmpq   *0x23d92a(%rip)        # 63f650 <error+0x23d6d1>
  401d26:	68 3f 00 00 00       	pushq  $0x3f
  401d2b:	e9 f0 fb ff ff       	jmpq   401920 <__fsetlocking@plt-0x10>

0000000000401d30 <dcgettext@plt>:
  401d30:	ff 25 22 d9 23 00    	jmpq   *0x23d922(%rip)        # 63f658 <error+0x23d6d9>
  401d36:	68 40 00 00 00       	pushq  $0x40
  401d3b:	e9 e0 fb ff ff       	jmpq   401920 <__fsetlocking@plt-0x10>

0000000000401d40 <__stack_chk_fail@plt>:
  401d40:	ff 25 1a d9 23 00    	jmpq   *0x23d91a(%rip)        # 63f660 <error+0x23d6e1>
  401d46:	68 41 00 00 00       	pushq  $0x41
  401d4b:	e9 d0 fb ff ff       	jmpq   401920 <__fsetlocking@plt-0x10>

0000000000401d50 <strcmp@plt>:
  401d50:	ff 25 12 d9 23 00    	jmpq   *0x23d912(%rip)        # 63f668 <error+0x23d6e9>
  401d56:	68 42 00 00 00       	pushq  $0x42
  401d5b:	e9 c0 fb ff ff       	jmpq   401920 <__fsetlocking@plt-0x10>

0000000000401d60 <__overflow@plt>:
  401d60:	ff 25 0a d9 23 00    	jmpq   *0x23d90a(%rip)        # 63f670 <error+0x23d6f1>
  401d66:	68 43 00 00 00       	pushq  $0x43
  401d6b:	e9 b0 fb ff ff       	jmpq   401920 <__fsetlocking@plt-0x10>

0000000000401d70 <strcpy@plt>:
  401d70:	ff 25 02 d9 23 00    	jmpq   *0x23d902(%rip)        # 63f678 <error+0x23d6f9>
  401d76:	68 44 00 00 00       	pushq  $0x44
  401d7b:	e9 a0 fb ff ff       	jmpq   401920 <__fsetlocking@plt-0x10>

0000000000401d80 <__ctype_tolower_loc@plt>:
  401d80:	ff 25 fa d8 23 00    	jmpq   *0x23d8fa(%rip)        # 63f680 <error+0x23d701>
  401d86:	68 45 00 00 00       	pushq  $0x45
  401d8b:	e9 90 fb ff ff       	jmpq   401920 <__fsetlocking@plt-0x10>

0000000000401d90 <memcmp@plt>:
  401d90:	ff 25 f2 d8 23 00    	jmpq   *0x23d8f2(%rip)        # 63f688 <error+0x23d709>
  401d96:	68 46 00 00 00       	pushq  $0x46
  401d9b:	e9 80 fb ff ff       	jmpq   401920 <__fsetlocking@plt-0x10>

0000000000401da0 <calloc@plt>:
  401da0:	ff 25 ea d8 23 00    	jmpq   *0x23d8ea(%rip)        # 63f690 <error+0x23d711>
  401da6:	68 47 00 00 00       	pushq  $0x47
  401dab:	e9 70 fb ff ff       	jmpq   401920 <__fsetlocking@plt-0x10>

0000000000401db0 <munmap@plt>:
  401db0:	ff 25 e2 d8 23 00    	jmpq   *0x23d8e2(%rip)        # 63f698 <error+0x23d719>
  401db6:	68 48 00 00 00       	pushq  $0x48
  401dbb:	e9 60 fb ff ff       	jmpq   401920 <__fsetlocking@plt-0x10>

0000000000401dc0 <fclose@plt>:
  401dc0:	ff 25 da d8 23 00    	jmpq   *0x23d8da(%rip)        # 63f6a0 <error+0x23d721>
  401dc6:	68 49 00 00 00       	pushq  $0x49
  401dcb:	e9 50 fb ff ff       	jmpq   401920 <__fsetlocking@plt-0x10>

0000000000401dd0 <remove@plt>:
  401dd0:	ff 25 d2 d8 23 00    	jmpq   *0x23d8d2(%rip)        # 63f6a8 <error+0x23d729>
  401dd6:	68 4a 00 00 00       	pushq  $0x4a
  401ddb:	e9 40 fb ff ff       	jmpq   401920 <__fsetlocking@plt-0x10>

0000000000401de0 <freopen@plt>:
  401de0:	ff 25 ca d8 23 00    	jmpq   *0x23d8ca(%rip)        # 63f6b0 <error+0x23d731>
  401de6:	68 4b 00 00 00       	pushq  $0x4b
  401deb:	e9 30 fb ff ff       	jmpq   401920 <__fsetlocking@plt-0x10>

0000000000401df0 <strncpy@plt>:
  401df0:	ff 25 c2 d8 23 00    	jmpq   *0x23d8c2(%rip)        # 63f6b8 <error+0x23d739>
  401df6:	68 4c 00 00 00       	pushq  $0x4c
  401dfb:	e9 20 fb ff ff       	jmpq   401920 <__fsetlocking@plt-0x10>

0000000000401e00 <access@plt>:
  401e00:	ff 25 ba d8 23 00    	jmpq   *0x23d8ba(%rip)        # 63f6c0 <error+0x23d741>
  401e06:	68 4d 00 00 00       	pushq  $0x4d
  401e0b:	e9 10 fb ff ff       	jmpq   401920 <__fsetlocking@plt-0x10>

0000000000401e10 <fork@plt>:
  401e10:	ff 25 b2 d8 23 00    	jmpq   *0x23d8b2(%rip)        # 63f6c8 <error+0x23d749>
  401e16:	68 4e 00 00 00       	pushq  $0x4e
  401e1b:	e9 00 fb ff ff       	jmpq   401920 <__fsetlocking@plt-0x10>

0000000000401e20 <fwrite@plt>:
  401e20:	ff 25 aa d8 23 00    	jmpq   *0x23d8aa(%rip)        # 63f6d0 <error+0x23d751>
  401e26:	68 4f 00 00 00       	pushq  $0x4f
  401e2b:	e9 f0 fa ff ff       	jmpq   401920 <__fsetlocking@plt-0x10>

0000000000401e30 <realloc@plt>:
  401e30:	ff 25 a2 d8 23 00    	jmpq   *0x23d8a2(%rip)        # 63f6d8 <error+0x23d759>
  401e36:	68 50 00 00 00       	pushq  $0x50
  401e3b:	e9 e0 fa ff ff       	jmpq   401920 <__fsetlocking@plt-0x10>

0000000000401e40 <mempcpy@plt>:
  401e40:	ff 25 9a d8 23 00    	jmpq   *0x23d89a(%rip)        # 63f6e0 <error+0x23d761>
  401e46:	68 51 00 00 00       	pushq  $0x51
  401e4b:	e9 d0 fa ff ff       	jmpq   401920 <__fsetlocking@plt-0x10>

0000000000401e50 <setlocale@plt>:
  401e50:	ff 25 92 d8 23 00    	jmpq   *0x23d892(%rip)        # 63f6e8 <error+0x23d769>
  401e56:	68 52 00 00 00       	pushq  $0x52
  401e5b:	e9 c0 fa ff ff       	jmpq   401920 <__fsetlocking@plt-0x10>

0000000000401e60 <fprintf@plt>:
  401e60:	ff 25 8a d8 23 00    	jmpq   *0x23d88a(%rip)        # 63f6f0 <error+0x23d771>
  401e66:	68 53 00 00 00       	pushq  $0x53
  401e6b:	e9 b0 fa ff ff       	jmpq   401920 <__fsetlocking@plt-0x10>

0000000000401e70 <write@plt>:
  401e70:	ff 25 82 d8 23 00    	jmpq   *0x23d882(%rip)        # 63f6f8 <error+0x23d779>
  401e76:	68 54 00 00 00       	pushq  $0x54
  401e7b:	e9 a0 fa ff ff       	jmpq   401920 <__fsetlocking@plt-0x10>

0000000000401e80 <fcntl@plt>:
  401e80:	ff 25 7a d8 23 00    	jmpq   *0x23d87a(%rip)        # 63f700 <error+0x23d781>
  401e86:	68 55 00 00 00       	pushq  $0x55
  401e8b:	e9 90 fa ff ff       	jmpq   401920 <__fsetlocking@plt-0x10>

0000000000401e90 <fflush_unlocked@plt>:
  401e90:	ff 25 72 d8 23 00    	jmpq   *0x23d872(%rip)        # 63f708 <error+0x23d789>
  401e96:	68 56 00 00 00       	pushq  $0x56
  401e9b:	e9 80 fa ff ff       	jmpq   401920 <__fsetlocking@plt-0x10>

0000000000401ea0 <open@plt>:
  401ea0:	ff 25 6a d8 23 00    	jmpq   *0x23d86a(%rip)        # 63f710 <error+0x23d791>
  401ea6:	68 57 00 00 00       	pushq  $0x57
  401eab:	e9 70 fa ff ff       	jmpq   401920 <__fsetlocking@plt-0x10>

0000000000401eb0 <mmap@plt>:
  401eb0:	ff 25 62 d8 23 00    	jmpq   *0x23d862(%rip)        # 63f718 <error+0x23d799>
  401eb6:	68 58 00 00 00       	pushq  $0x58
  401ebb:	e9 60 fa ff ff       	jmpq   401920 <__fsetlocking@plt-0x10>

0000000000401ec0 <vfork@plt>:
  401ec0:	ff 25 5a d8 23 00    	jmpq   *0x23d85a(%rip)        # 63f720 <error+0x23d7a1>
  401ec6:	68 59 00 00 00       	pushq  $0x59
  401ecb:	e9 50 fa ff ff       	jmpq   401920 <__fsetlocking@plt-0x10>

Disassembly of section .text:

0000000000401ed0 <error-0xaf>:
  401ed0:	53                   	push   %rbx
  401ed1:	48 81 ec d0 00 00 00 	sub    $0xd0,%rsp
  401ed8:	4c 89 44 24 40       	mov    %r8,0x40(%rsp)
  401edd:	44 0f b6 c0          	movzbl %al,%r8d
  401ee1:	48 89 74 24 28       	mov    %rsi,0x28(%rsp)
  401ee6:	4a 8d 34 85 00 00 00 	lea    0x0(,%r8,4),%rsi
  401eed:	00 
  401eee:	48 89 54 24 30       	mov    %rdx,0x30(%rsp)
  401ef3:	48 89 4c 24 38       	mov    %rcx,0x38(%rsp)
  401ef8:	48 8d 9c 24 cf 00 00 	lea    0xcf(%rsp),%rbx
  401eff:	00 
  401f00:	48 8d 94 24 e0 00 00 	lea    0xe0(%rsp),%rdx
  401f07:	00 
  401f08:	b9 41 1f 40 00       	mov    $0x401f41,%ecx
  401f0d:	48 29 f1             	sub    %rsi,%rcx
  401f10:	48 8d 44 24 20       	lea    0x20(%rsp),%rax
  401f15:	4c 89 4c 24 48       	mov    %r9,0x48(%rsp)
  401f1a:	48 89 fe             	mov    %rdi,%rsi
  401f1d:	31 ff                	xor    %edi,%edi
  401f1f:	ff e1                	jmpq   *%rcx
  401f21:	0f 29 7b f1          	movaps %xmm7,-0xf(%rbx)
  401f25:	0f 29 73 e1          	movaps %xmm6,-0x1f(%rbx)
  401f29:	0f 29 6b d1          	movaps %xmm5,-0x2f(%rbx)
  401f2d:	0f 29 63 c1          	movaps %xmm4,-0x3f(%rbx)
  401f31:	0f 29 5b b1          	movaps %xmm3,-0x4f(%rbx)
  401f35:	0f 29 53 a1          	movaps %xmm2,-0x5f(%rbx)
  401f39:	0f 29 4b 91          	movaps %xmm1,-0x6f(%rbx)
  401f3d:	0f 29 43 81          	movaps %xmm0,-0x7f(%rbx)
  401f41:	48 89 54 24 08       	mov    %rdx,0x8(%rsp)
  401f46:	ba 05 00 00 00       	mov    $0x5,%edx
  401f4b:	c7 04 24 08 00 00 00 	movl   $0x8,(%rsp)
  401f52:	c7 44 24 04 30 00 00 	movl   $0x30,0x4(%rsp)
  401f59:	00 
  401f5a:	48 89 44 24 10       	mov    %rax,0x10(%rsp)
  401f5f:	e8 cc fd ff ff       	callq  401d30 <dcgettext@plt>
  401f64:	48 8b 3d a5 e1 23 00 	mov    0x23e1a5(%rip),%rdi        # 640110 <stderr>
  401f6b:	48 89 e2             	mov    %rsp,%rdx
  401f6e:	48 89 c6             	mov    %rax,%rsi
  401f71:	e8 9a fb ff ff       	callq  401b10 <vfprintf@plt>
  401f76:	48 81 c4 d0 00 00 00 	add    $0xd0,%rsp
  401f7d:	5b                   	pop    %rbx
  401f7e:	c3                   	retq   

0000000000401f7f <error>:
  401f7f:	55                   	push   %rbp
  401f80:	48 89 fd             	mov    %rdi,%rbp
  401f83:	53                   	push   %rbx
  401f84:	48 81 ec d8 00 00 00 	sub    $0xd8,%rsp
  401f8b:	48 8b 3d 7e e1 23 00 	mov    0x23e17e(%rip),%rdi        # 640110 <stderr>
  401f92:	4c 89 44 24 40       	mov    %r8,0x40(%rsp)
  401f97:	44 0f b6 c0          	movzbl %al,%r8d
  401f9b:	48 89 74 24 28       	mov    %rsi,0x28(%rsp)
  401fa0:	4a 8d 34 85 00 00 00 	lea    0x0(,%r8,4),%rsi
  401fa7:	00 
  401fa8:	48 89 54 24 30       	mov    %rdx,0x30(%rsp)
  401fad:	48 89 4c 24 38       	mov    %rcx,0x38(%rsp)
  401fb2:	48 8d 9c 24 cf 00 00 	lea    0xcf(%rsp),%rbx
  401fb9:	00 
  401fba:	48 8d 94 24 f0 00 00 	lea    0xf0(%rsp),%rdx
  401fc1:	00 
  401fc2:	b9 f6 1f 40 00       	mov    $0x401ff6,%ecx
  401fc7:	48 29 f1             	sub    %rsi,%rcx
  401fca:	4c 89 4c 24 48       	mov    %r9,0x48(%rsp)
  401fcf:	48 8d 44 24 20       	lea    0x20(%rsp),%rax
  401fd4:	ff e1                	jmpq   *%rcx
  401fd6:	0f 29 7b f1          	movaps %xmm7,-0xf(%rbx)
  401fda:	0f 29 73 e1          	movaps %xmm6,-0x1f(%rbx)
  401fde:	0f 29 6b d1          	movaps %xmm5,-0x2f(%rbx)
  401fe2:	0f 29 63 c1          	movaps %xmm4,-0x3f(%rbx)
  401fe6:	0f 29 5b b1          	movaps %xmm3,-0x4f(%rbx)
  401fea:	0f 29 53 a1          	movaps %xmm2,-0x5f(%rbx)
  401fee:	0f 29 4b 91          	movaps %xmm1,-0x6f(%rbx)
  401ff2:	0f 29 43 81          	movaps %xmm0,-0x7f(%rbx)
  401ff6:	48 89 54 24 08       	mov    %rdx,0x8(%rsp)
  401ffb:	be d0 cd 41 00       	mov    $0x41cdd0,%esi
  402000:	48 8b 15 01 e4 23 00 	mov    0x23e401(%rip),%rdx        # 640408 <stdout+0x2e8>
  402007:	48 89 44 24 10       	mov    %rax,0x10(%rsp)
  40200c:	31 c0                	xor    %eax,%eax
  40200e:	c7 04 24 08 00 00 00 	movl   $0x8,(%rsp)
  402015:	c7 44 24 04 30 00 00 	movl   $0x30,0x4(%rsp)
  40201c:	00 
  40201d:	e8 3e fe ff ff       	callq  401e60 <fprintf@plt>
  402022:	48 89 ee             	mov    %rbp,%rsi
  402025:	ba 05 00 00 00       	mov    $0x5,%edx
  40202a:	31 ff                	xor    %edi,%edi
  40202c:	e8 ff fc ff ff       	callq  401d30 <dcgettext@plt>
  402031:	48 8b 3d d8 e0 23 00 	mov    0x23e0d8(%rip),%rdi        # 640110 <stderr>
  402038:	48 89 e2             	mov    %rsp,%rdx
  40203b:	48 89 c6             	mov    %rax,%rsi
  40203e:	e8 cd fa ff ff       	callq  401b10 <vfprintf@plt>
  402043:	48 8b 35 c6 e0 23 00 	mov    0x23e0c6(%rip),%rsi        # 640110 <stderr>
  40204a:	bf 0a 00 00 00       	mov    $0xa,%edi
  40204f:	e8 dc fa ff ff       	callq  401b30 <fputc@plt>
  402054:	48 81 c4 d8 00 00 00 	add    $0xd8,%rsp
  40205b:	5b                   	pop    %rbx
  40205c:	5d                   	pop    %rbp
  40205d:	c3                   	retq   
  40205e:	53                   	push   %rbx
  40205f:	48 89 fb             	mov    %rdi,%rbx
  402062:	e8 b9 fc ff ff       	callq  401d20 <__errno_location@plt>
  402067:	8b 38                	mov    (%rax),%edi
  402069:	e8 4c 8e 00 00       	callq  40aeba <error+0x8f3b>
  40206e:	48 89 de             	mov    %rbx,%rsi
  402071:	48 89 c2             	mov    %rax,%rdx
  402074:	bf c9 d1 41 00       	mov    $0x41d1c9,%edi
  402079:	5b                   	pop    %rbx
  40207a:	31 c0                	xor    %eax,%eax
  40207c:	e9 fe fe ff ff       	jmpq   401f7f <error>
  402081:	53                   	push   %rbx
  402082:	48 89 fe             	mov    %rdi,%rsi
  402085:	48 89 fb             	mov    %rdi,%rbx
  402088:	bf 01 00 00 00       	mov    $0x1,%edi
  40208d:	48 81 ec 90 00 00 00 	sub    $0x90,%rsp
  402094:	48 89 e2             	mov    %rsp,%rdx
  402097:	e8 d4 fa ff ff       	callq  401b70 <__xstat@plt>
  40209c:	85 c0                	test   %eax,%eax
  40209e:	78 2d                	js     4020cd <error+0x14e>
  4020a0:	8b 44 24 18          	mov    0x18(%rsp),%eax
  4020a4:	25 00 f0 00 00       	and    $0xf000,%eax
  4020a9:	3d 00 80 00 00       	cmp    $0x8000,%eax
  4020ae:	75 1d                	jne    4020cd <error+0x14e>
  4020b0:	48 89 df             	mov    %rbx,%rdi
  4020b3:	e8 08 fa ff ff       	callq  401ac0 <unlink@plt>
  4020b8:	85 c0                	test   %eax,%eax
  4020ba:	79 11                	jns    4020cd <error+0x14e>
  4020bc:	83 3d 31 e1 23 00 00 	cmpl   $0x0,0x23e131(%rip)        # 6401f4 <stdout+0xd4>
  4020c3:	74 08                	je     4020cd <error+0x14e>
  4020c5:	48 89 df             	mov    %rbx,%rdi
  4020c8:	e8 91 ff ff ff       	callq  40205e <error+0xdf>
  4020cd:	48 81 c4 90 00 00 00 	add    $0x90,%rsp
  4020d4:	5b                   	pop    %rbx
  4020d5:	c3                   	retq   
  4020d6:	53                   	push   %rbx
  4020d7:	48 8b 1d 42 e3 23 00 	mov    0x23e342(%rip),%rbx        # 640420 <stdout+0x300>
  4020de:	eb 0c                	jmp    4020ec <error+0x16d>
  4020e0:	48 8b 3b             	mov    (%rbx),%rdi
  4020e3:	e8 99 ff ff ff       	callq  402081 <error+0x102>
  4020e8:	48 8b 5b 08          	mov    0x8(%rbx),%rbx
  4020ec:	48 85 db             	test   %rbx,%rbx
  4020ef:	75 ef                	jne    4020e0 <error+0x161>
  4020f1:	48 c7 05 24 e3 23 00 	movq   $0x0,0x23e324(%rip)        # 640420 <stdout+0x300>
  4020f8:	00 00 00 00 
  4020fc:	5b                   	pop    %rbx
  4020fd:	c3                   	retq   
  4020fe:	55                   	push   %rbp
  4020ff:	48 89 fd             	mov    %rdi,%rbp
  402102:	53                   	push   %rbx
  402103:	48 81 ec d8 00 00 00 	sub    $0xd8,%rsp
  40210a:	48 8b 3d ff df 23 00 	mov    0x23dfff(%rip),%rdi        # 640110 <stderr>
  402111:	4c 89 44 24 40       	mov    %r8,0x40(%rsp)
  402116:	44 0f b6 c0          	movzbl %al,%r8d
  40211a:	48 89 74 24 28       	mov    %rsi,0x28(%rsp)
  40211f:	4a 8d 34 85 00 00 00 	lea    0x0(,%r8,4),%rsi
  402126:	00 
  402127:	48 89 54 24 30       	mov    %rdx,0x30(%rsp)
  40212c:	48 89 4c 24 38       	mov    %rcx,0x38(%rsp)
  402131:	48 8d 94 24 f0 00 00 	lea    0xf0(%rsp),%rdx
  402138:	00 
  402139:	b9 75 21 40 00       	mov    $0x402175,%ecx
  40213e:	48 8d 9c 24 cf 00 00 	lea    0xcf(%rsp),%rbx
  402145:	00 
  402146:	48 29 f1             	sub    %rsi,%rcx
  402149:	4c 89 4c 24 48       	mov    %r9,0x48(%rsp)
  40214e:	48 8d 44 24 20       	lea    0x20(%rsp),%rax
  402153:	ff e1                	jmpq   *%rcx
  402155:	0f 29 7b f1          	movaps %xmm7,-0xf(%rbx)
  402159:	0f 29 73 e1          	movaps %xmm6,-0x1f(%rbx)
  40215d:	0f 29 6b d1          	movaps %xmm5,-0x2f(%rbx)
  402161:	0f 29 63 c1          	movaps %xmm4,-0x3f(%rbx)
  402165:	0f 29 5b b1          	movaps %xmm3,-0x4f(%rbx)
  402169:	0f 29 53 a1          	movaps %xmm2,-0x5f(%rbx)
  40216d:	0f 29 4b 91          	movaps %xmm1,-0x6f(%rbx)
  402171:	0f 29 43 81          	movaps %xmm0,-0x7f(%rbx)
  402175:	48 89 54 24 08       	mov    %rdx,0x8(%rsp)
  40217a:	be d0 cd 41 00       	mov    $0x41cdd0,%esi
  40217f:	48 8b 15 82 e2 23 00 	mov    0x23e282(%rip),%rdx        # 640408 <stdout+0x2e8>
  402186:	48 89 44 24 10       	mov    %rax,0x10(%rsp)
  40218b:	31 c0                	xor    %eax,%eax
  40218d:	c7 04 24 08 00 00 00 	movl   $0x8,(%rsp)
  402194:	c7 44 24 04 30 00 00 	movl   $0x30,0x4(%rsp)
  40219b:	00 
  40219c:	e8 bf fc ff ff       	callq  401e60 <fprintf@plt>
  4021a1:	ba 05 00 00 00       	mov    $0x5,%edx
  4021a6:	48 89 ee             	mov    %rbp,%rsi
  4021a9:	31 ff                	xor    %edi,%edi
  4021ab:	e8 80 fb ff ff       	callq  401d30 <dcgettext@plt>
  4021b0:	48 8b 3d 59 df 23 00 	mov    0x23df59(%rip),%rdi        # 640110 <stderr>
  4021b7:	48 89 e2             	mov    %rsp,%rdx
  4021ba:	48 89 c6             	mov    %rax,%rsi
  4021bd:	e8 4e f9 ff ff       	callq  401b10 <vfprintf@plt>
  4021c2:	48 8b 35 47 df 23 00 	mov    0x23df47(%rip),%rsi        # 640110 <stderr>
  4021c9:	bf 0a 00 00 00       	mov    $0xa,%edi
  4021ce:	e8 5d f9 ff ff       	callq  401b30 <fputc@plt>
  4021d3:	e8 fe fe ff ff       	callq  4020d6 <error+0x157>
  4021d8:	bf 01 00 00 00       	mov    $0x1,%edi
  4021dd:	e8 1e f8 ff ff       	callq  401a00 <exit@plt>
  4021e2:	55                   	push   %rbp
  4021e3:	48 89 fd             	mov    %rdi,%rbp
  4021e6:	53                   	push   %rbx
  4021e7:	48 81 ec d8 00 00 00 	sub    $0xd8,%rsp
  4021ee:	48 8b 3d 1b df 23 00 	mov    0x23df1b(%rip),%rdi        # 640110 <stderr>
  4021f5:	4c 89 44 24 40       	mov    %r8,0x40(%rsp)
  4021fa:	44 0f b6 c0          	movzbl %al,%r8d
  4021fe:	48 89 74 24 28       	mov    %rsi,0x28(%rsp)
  402203:	4a 8d 34 85 00 00 00 	lea    0x0(,%r8,4),%rsi
  40220a:	00 
  40220b:	48 89 54 24 30       	mov    %rdx,0x30(%rsp)
  402210:	48 89 4c 24 38       	mov    %rcx,0x38(%rsp)
  402215:	48 8d 94 24 f0 00 00 	lea    0xf0(%rsp),%rdx
  40221c:	00 
  40221d:	b9 59 22 40 00       	mov    $0x402259,%ecx
  402222:	48 8d 9c 24 cf 00 00 	lea    0xcf(%rsp),%rbx
  402229:	00 
  40222a:	48 29 f1             	sub    %rsi,%rcx
  40222d:	4c 89 4c 24 48       	mov    %r9,0x48(%rsp)
  402232:	48 8d 44 24 20       	lea    0x20(%rsp),%rax
  402237:	ff e1                	jmpq   *%rcx
  402239:	0f 29 7b f1          	movaps %xmm7,-0xf(%rbx)
  40223d:	0f 29 73 e1          	movaps %xmm6,-0x1f(%rbx)
  402241:	0f 29 6b d1          	movaps %xmm5,-0x2f(%rbx)
  402245:	0f 29 63 c1          	movaps %xmm4,-0x3f(%rbx)
  402249:	0f 29 5b b1          	movaps %xmm3,-0x4f(%rbx)
  40224d:	0f 29 53 a1          	movaps %xmm2,-0x5f(%rbx)
  402251:	0f 29 4b 91          	movaps %xmm1,-0x6f(%rbx)
  402255:	0f 29 43 81          	movaps %xmm0,-0x7f(%rbx)
  402259:	48 89 54 24 08       	mov    %rdx,0x8(%rsp)
  40225e:	be d0 cd 41 00       	mov    $0x41cdd0,%esi
  402263:	48 8b 15 9e e1 23 00 	mov    0x23e19e(%rip),%rdx        # 640408 <stdout+0x2e8>
  40226a:	48 89 44 24 10       	mov    %rax,0x10(%rsp)
  40226f:	31 c0                	xor    %eax,%eax
  402271:	c7 04 24 08 00 00 00 	movl   $0x8,(%rsp)
  402278:	c7 44 24 04 30 00 00 	movl   $0x30,0x4(%rsp)
  40227f:	00 
  402280:	e8 db fb ff ff       	callq  401e60 <fprintf@plt>
  402285:	31 ff                	xor    %edi,%edi
  402287:	ba 05 00 00 00       	mov    $0x5,%edx
  40228c:	48 89 ee             	mov    %rbp,%rsi
  40228f:	e8 9c fa ff ff       	callq  401d30 <dcgettext@plt>
  402294:	48 8b 3d 75 de 23 00 	mov    0x23de75(%rip),%rdi        # 640110 <stderr>
  40229b:	48 89 e2             	mov    %rsp,%rdx
  40229e:	48 89 c6             	mov    %rax,%rsi
  4022a1:	e8 6a f8 ff ff       	callq  401b10 <vfprintf@plt>
  4022a6:	48 8b 35 63 de 23 00 	mov    0x23de63(%rip),%rsi        # 640110 <stderr>
  4022ad:	bf 0a 00 00 00       	mov    $0xa,%edi
  4022b2:	e8 79 f8 ff ff       	callq  401b30 <fputc@plt>
  4022b7:	e8 1a fe ff ff       	callq  4020d6 <error+0x157>
  4022bc:	83 3d 11 df 23 00 01 	cmpl   $0x1,0x23df11(%rip)        # 6401d4 <stdout+0xb4>
  4022c3:	19 ff                	sbb    %edi,%edi
  4022c5:	83 e7 fd             	and    $0xfffffffffffffffd,%edi
  4022c8:	83 c7 04             	add    $0x4,%edi
  4022cb:	e8 30 f7 ff ff       	callq  401a00 <exit@plt>
  4022d0:	89 f1                	mov    %esi,%ecx
  4022d2:	48 83 ec 08          	sub    $0x8,%rsp
  4022d6:	48 89 d6             	mov    %rdx,%rsi
  4022d9:	31 c0                	xor    %eax,%eax
  4022db:	48 89 fa             	mov    %rdi,%rdx
  4022de:	bf 78 e1 41 00       	mov    $0x41e178,%edi
  4022e3:	e8 fa fe ff ff       	callq  4021e2 <error+0x263>
  4022e8:	48 83 ec 08          	sub    $0x8,%rsp
  4022ec:	e8 6d fd ff ff       	callq  40205e <error+0xdf>
  4022f1:	e8 e0 fd ff ff       	callq  4020d6 <error+0x157>
  4022f6:	bf 01 00 00 00       	mov    $0x1,%edi
  4022fb:	e8 00 f7 ff ff       	callq  401a00 <exit@plt>
  402300:	55                   	push   %rbp
  402301:	48 89 f5             	mov    %rsi,%rbp
  402304:	53                   	push   %rbx
  402305:	48 83 ec 08          	sub    $0x8,%rsp
  402309:	85 ff                	test   %edi,%edi
  40230b:	75 0c                	jne    402319 <error+0x39a>
  40230d:	bf a0 e1 41 00       	mov    $0x41e1a0,%edi
  402312:	31 c0                	xor    %eax,%eax
  402314:	e8 e5 fd ff ff       	callq  4020fe <error+0x17f>
  402319:	83 ff 01             	cmp    $0x1,%edi
  40231c:	74 0c                	je     40232a <error+0x3ab>
  40231e:	bf d8 e1 41 00       	mov    $0x41e1d8,%edi
  402323:	31 c0                	xor    %eax,%eax
  402325:	e8 d4 fd ff ff       	callq  4020fe <error+0x17f>
  40232a:	31 c0                	xor    %eax,%eax
  40232c:	83 3d 9d e4 23 00 00 	cmpl   $0x0,0x23e49d(%rip)        # 6407d0 <stdout+0x6b0>
  402333:	79 7a                	jns    4023af <error+0x430>
  402335:	48 8b 16             	mov    (%rsi),%rdx
  402338:	48 83 c9 ff          	or     $0xffffffffffffffff,%rcx
  40233c:	48 89 d7             	mov    %rdx,%rdi
  40233f:	f2 ae                	repnz scas %es:(%rdi),%al
  402341:	48 f7 d1             	not    %rcx
  402344:	8d 59 ff             	lea    -0x1(%rcx),%ebx
  402347:	83 fb 02             	cmp    $0x2,%ebx
  40234a:	7e 16                	jle    402362 <error+0x3e3>
  40234c:	48 63 c3             	movslq %ebx,%rax
  40234f:	be d5 cd 41 00       	mov    $0x41cdd5,%esi
  402354:	48 8d 7c 02 fd       	lea    -0x3(%rdx,%rax,1),%rdi
  402359:	e8 f2 f9 ff ff       	callq  401d50 <strcmp@plt>
  40235e:	85 c0                	test   %eax,%eax
  402360:	74 0c                	je     40236e <error+0x3ef>
  402362:	bf 10 e2 41 00       	mov    $0x41e210,%edi
  402367:	31 c0                	xor    %eax,%eax
  402369:	e8 90 fd ff ff       	callq  4020fe <error+0x17f>
  40236e:	48 8b 05 1b e2 23 00 	mov    0x23e21b(%rip),%rax        # 640590 <stdout+0x470>
  402375:	48 85 c0             	test   %rax,%rax
  402378:	75 35                	jne    4023af <error+0x430>
  40237a:	83 eb 03             	sub    $0x3,%ebx
  40237d:	48 63 db             	movslq %ebx,%rbx
  402380:	48 8d 7b 0a          	lea    0xa(%rbx),%rdi
  402384:	e8 07 a8 01 00       	callq  41cb90 <error+0x1ac11>
  402389:	48 8d 50 09          	lea    0x9(%rax),%rdx
  40238d:	49 b8 2d 61 75 78 62 	mov    $0x657361627875612d,%r8
  402394:	61 73 65 
  402397:	c6 40 08 20          	movb   $0x20,0x8(%rax)
  40239b:	4c 89 00             	mov    %r8,(%rax)
  40239e:	48 89 d9             	mov    %rbx,%rcx
  4023a1:	48 8b 75 00          	mov    0x0(%rbp),%rsi
  4023a5:	48 89 d7             	mov    %rdx,%rdi
  4023a8:	f3 a4                	rep movsb %ds:(%rsi),%es:(%rdi)
  4023aa:	c6 44 18 09 00       	movb   $0x0,0x9(%rax,%rbx,1)
  4023af:	48 83 c4 08          	add    $0x8,%rsp
  4023b3:	5b                   	pop    %rbx
  4023b4:	5d                   	pop    %rbp
  4023b5:	c3                   	retq   
  4023b6:	31 c0                	xor    %eax,%eax
  4023b8:	83 ff 02             	cmp    $0x2,%edi
  4023bb:	53                   	push   %rbx
  4023bc:	48 89 f3             	mov    %rsi,%rbx
  4023bf:	75 1f                	jne    4023e0 <error+0x461>
  4023c1:	48 8b 3e             	mov    (%rsi),%rdi
  4023c4:	80 3f 2f             	cmpb   $0x2f,(%rdi)
  4023c7:	75 13                	jne    4023dc <error+0x45d>
  4023c9:	be 04 00 00 00       	mov    $0x4,%esi
  4023ce:	e8 2d fa ff ff       	callq  401e00 <access@plt>
  4023d3:	85 c0                	test   %eax,%eax
  4023d5:	75 05                	jne    4023dc <error+0x45d>
  4023d7:	48 8b 03             	mov    (%rbx),%rax
  4023da:	eb 04                	jmp    4023e0 <error+0x461>
  4023dc:	48 8b 43 08          	mov    0x8(%rbx),%rax
  4023e0:	5b                   	pop    %rbx
  4023e1:	c3                   	retq   
  4023e2:	83 ff 01             	cmp    $0x1,%edi
  4023e5:	53                   	push   %rbx
  4023e6:	48 89 f3             	mov    %rsi,%rbx
  4023e9:	75 1b                	jne    402406 <error+0x487>
  4023eb:	48 8b 3e             	mov    (%rsi),%rdi
  4023ee:	80 3f 2f             	cmpb   $0x2f,(%rdi)
  4023f1:	75 13                	jne    402406 <error+0x487>
  4023f3:	be 04 00 00 00       	mov    $0x4,%esi
  4023f8:	e8 03 fa ff ff       	callq  401e00 <access@plt>
  4023fd:	85 c0                	test   %eax,%eax
  4023ff:	75 05                	jne    402406 <error+0x487>
  402401:	48 8b 03             	mov    (%rbx),%rax
  402404:	eb 02                	jmp    402408 <error+0x489>
  402406:	31 c0                	xor    %eax,%eax
  402408:	5b                   	pop    %rbx
  402409:	c3                   	retq   
  40240a:	41 55                	push   %r13
  40240c:	41 54                	push   %r12
  40240e:	49 89 f4             	mov    %rsi,%r12
  402411:	55                   	push   %rbp
  402412:	53                   	push   %rbx
  402413:	48 83 ec 08          	sub    $0x8,%rsp
  402417:	83 ff 02             	cmp    $0x2,%edi
  40241a:	75 06                	jne    402422 <error+0x4a3>
  40241c:	31 ed                	xor    %ebp,%ebp
  40241e:	31 db                	xor    %ebx,%ebx
  402420:	eb 50                	jmp    402472 <error+0x4f3>
  402422:	b9 90 21 00 00       	mov    $0x2190,%ecx
  402427:	ba f4 cd 41 00       	mov    $0x41cdf4,%edx
  40242c:	be d0 55 42 00       	mov    $0x4255d0,%esi
  402431:	bf 78 e1 41 00       	mov    $0x41e178,%edi
  402436:	31 c0                	xor    %eax,%eax
  402438:	e8 a5 fd ff ff       	callq  4021e2 <error+0x263>
  40243d:	49 89 ed             	mov    %rbp,%r13
  402440:	4c 03 2d 99 e3 23 00 	add    0x23e399(%rip),%r13        # 6407e0 <stdout+0x6c0>
  402447:	49 8b 7d 00          	mov    0x0(%r13),%rdi
  40244b:	48 85 ff             	test   %rdi,%rdi
  40244e:	74 1b                	je     40246b <error+0x4ec>
  402450:	49 8b 34 24          	mov    (%r12),%rsi
  402454:	e8 f7 f8 ff ff       	callq  401d50 <strcmp@plt>
  402459:	85 c0                	test   %eax,%eax
  40245b:	75 0e                	jne    40246b <error+0x4ec>
  40245d:	49 8b 7c 24 08       	mov    0x8(%r12),%rdi
  402462:	e8 99 a7 01 00       	callq  41cc00 <error+0x1ac81>
  402467:	49 89 45 00          	mov    %rax,0x0(%r13)
  40246b:	83 c3 01             	add    $0x1,%ebx
  40246e:	48 83 c5 08          	add    $0x8,%rbp
  402472:	3b 1d 70 e3 23 00    	cmp    0x23e370(%rip),%ebx        # 6407e8 <stdout+0x6c8>
  402478:	7c c3                	jl     40243d <error+0x4be>
  40247a:	48 83 c4 08          	add    $0x8,%rsp
  40247e:	31 c0                	xor    %eax,%eax
  402480:	5b                   	pop    %rbx
  402481:	5d                   	pop    %rbp
  402482:	41 5c                	pop    %r12
  402484:	41 5d                	pop    %r13
  402486:	c3                   	retq   
  402487:	41 54                	push   %r12
  402489:	41 89 f4             	mov    %esi,%r12d
  40248c:	55                   	push   %rbp
  40248d:	89 d5                	mov    %edx,%ebp
  40248f:	53                   	push   %rbx
  402490:	e8 6b a7 01 00       	callq  41cc00 <error+0x1ac81>
  402495:	45 85 e4             	test   %r12d,%r12d
  402498:	48 89 c3             	mov    %rax,%rbx
  40249b:	74 42                	je     4024df <error+0x560>
  40249d:	4c 8b 25 7c df 23 00 	mov    0x23df7c(%rip),%r12        # 640420 <stdout+0x300>
  4024a4:	eb 15                	jmp    4024bb <error+0x53c>
  4024a6:	49 8b 34 24          	mov    (%r12),%rsi
  4024aa:	48 89 df             	mov    %rbx,%rdi
  4024ad:	e8 9e f8 ff ff       	callq  401d50 <strcmp@plt>
  4024b2:	85 c0                	test   %eax,%eax
  4024b4:	74 29                	je     4024df <error+0x560>
  4024b6:	4d 8b 64 24 08       	mov    0x8(%r12),%r12
  4024bb:	4d 85 e4             	test   %r12,%r12
  4024be:	75 e6                	jne    4024a6 <error+0x527>
  4024c0:	bf 10 00 00 00       	mov    $0x10,%edi
  4024c5:	e8 c6 a6 01 00       	callq  41cb90 <error+0x1ac11>
  4024ca:	48 8b 15 4f df 23 00 	mov    0x23df4f(%rip),%rdx        # 640420 <stdout+0x300>
  4024d1:	48 89 18             	mov    %rbx,(%rax)
  4024d4:	48 89 50 08          	mov    %rdx,0x8(%rax)
  4024d8:	48 89 05 41 df 23 00 	mov    %rax,0x23df41(%rip)        # 640420 <stdout+0x300>
  4024df:	85 ed                	test   %ebp,%ebp
  4024e1:	74 41                	je     402524 <error+0x5a5>
  4024e3:	48 8b 2d 3e df 23 00 	mov    0x23df3e(%rip),%rbp        # 640428 <stdout+0x308>
  4024ea:	eb 14                	jmp    402500 <error+0x581>
  4024ec:	48 8b 75 00          	mov    0x0(%rbp),%rsi
  4024f0:	48 89 df             	mov    %rbx,%rdi
  4024f3:	e8 58 f8 ff ff       	callq  401d50 <strcmp@plt>
  4024f8:	85 c0                	test   %eax,%eax
  4024fa:	74 28                	je     402524 <error+0x5a5>
  4024fc:	48 8b 6d 08          	mov    0x8(%rbp),%rbp
  402500:	48 85 ed             	test   %rbp,%rbp
  402503:	75 e7                	jne    4024ec <error+0x56d>
  402505:	bf 10 00 00 00       	mov    $0x10,%edi
  40250a:	e8 81 a6 01 00       	callq  41cb90 <error+0x1ac11>
  40250f:	48 8b 0d 12 df 23 00 	mov    0x23df12(%rip),%rcx        # 640428 <stdout+0x308>
  402516:	48 89 18             	mov    %rbx,(%rax)
  402519:	48 89 48 08          	mov    %rcx,0x8(%rax)
  40251d:	48 89 05 04 df 23 00 	mov    %rax,0x23df04(%rip)        # 640428 <stdout+0x308>
  402524:	5b                   	pop    %rbx
  402525:	5d                   	pop    %rbp
  402526:	41 5c                	pop    %r12
  402528:	c3                   	retq   
  402529:	48 83 ec 08          	sub    $0x8,%rsp
  40252d:	ba 05 00 00 00       	mov    $0x5,%edx
  402532:	be 50 e2 41 00       	mov    $0x41e250,%esi
  402537:	31 ff                	xor    %edi,%edi
  402539:	e8 f2 f7 ff ff       	callq  401d30 <dcgettext@plt>
  40253e:	48 89 c7             	mov    %rax,%rdi
  402541:	31 c0                	xor    %eax,%eax
  402543:	e8 08 f4 ff ff       	callq  401950 <printf@plt>
  402548:	ba 05 00 00 00       	mov    $0x5,%edx
  40254d:	be 78 e2 41 00       	mov    $0x41e278,%esi
  402552:	31 ff                	xor    %edi,%edi
  402554:	e8 d7 f7 ff ff       	callq  401d30 <dcgettext@plt>
  402559:	48 89 c7             	mov    %rax,%rdi
  40255c:	31 c0                	xor    %eax,%eax
  40255e:	e8 ed f3 ff ff       	callq  401950 <printf@plt>
  402563:	48 8b 3d b6 db 23 00 	mov    0x23dbb6(%rip),%rdi        # 640120 <stdout>
  40256a:	e8 21 f9 ff ff       	callq  401e90 <fflush_unlocked@plt>
  40256f:	31 c0                	xor    %eax,%eax
  402571:	48 83 c4 08          	add    $0x8,%rsp
  402575:	c3                   	retq   
  402576:	41 54                	push   %r12
  402578:	45 31 e4             	xor    %r12d,%r12d
  40257b:	83 ff 02             	cmp    $0x2,%edi
  40257e:	55                   	push   %rbp
  40257f:	48 89 f5             	mov    %rsi,%rbp
  402582:	53                   	push   %rbx
  402583:	75 72                	jne    4025f7 <error+0x678>
  402585:	48 8b 3e             	mov    (%rsi),%rdi
  402588:	e8 73 f7 ff ff       	callq  401d00 <getenv@plt>
  40258d:	48 85 c0             	test   %rax,%rax
  402590:	48 89 c3             	mov    %rax,%rbx
  402593:	75 10                	jne    4025a5 <error+0x626>
  402595:	48 8b 75 00          	mov    0x0(%rbp),%rsi
  402599:	bf b0 e2 41 00       	mov    $0x41e2b0,%edi
  40259e:	31 c0                	xor    %eax,%eax
  4025a0:	e8 59 fb ff ff       	callq  4020fe <error+0x17f>
  4025a5:	48 83 ce ff          	or     $0xffffffffffffffff,%rsi
  4025a9:	31 c0                	xor    %eax,%eax
  4025ab:	48 89 df             	mov    %rbx,%rdi
  4025ae:	48 89 f1             	mov    %rsi,%rcx
  4025b1:	f2 ae                	repnz scas %es:(%rdi),%al
  4025b3:	48 8b 7d 08          	mov    0x8(%rbp),%rdi
  4025b7:	48 89 ca             	mov    %rcx,%rdx
  4025ba:	48 89 f1             	mov    %rsi,%rcx
  4025bd:	48 f7 d2             	not    %rdx
  4025c0:	f2 ae                	repnz scas %es:(%rdi),%al
  4025c2:	48 f7 d1             	not    %rcx
  4025c5:	48 8d 7c 51 fe       	lea    -0x2(%rcx,%rdx,2),%rdi
  4025ca:	e8 c1 a5 01 00       	callq  41cb90 <error+0x1ac11>
  4025cf:	49 89 c4             	mov    %rax,%r12
  4025d2:	48 89 c7             	mov    %rax,%rdi
  4025d5:	eb 12                	jmp    4025e9 <error+0x66a>
  4025d7:	c6 07 5c             	movb   $0x5c,(%rdi)
  4025da:	44 8a 03             	mov    (%rbx),%r8b
  4025dd:	48 83 c3 01          	add    $0x1,%rbx
  4025e1:	44 88 47 01          	mov    %r8b,0x1(%rdi)
  4025e5:	48 83 c7 02          	add    $0x2,%rdi
  4025e9:	80 3b 00             	cmpb   $0x0,(%rbx)
  4025ec:	75 e9                	jne    4025d7 <error+0x658>
  4025ee:	48 8b 75 08          	mov    0x8(%rbp),%rsi
  4025f2:	e8 79 f7 ff ff       	callq  401d70 <strcpy@plt>
  4025f7:	5b                   	pop    %rbx
  4025f8:	5d                   	pop    %rbp
  4025f9:	4c 89 e0             	mov    %r12,%rax
  4025fc:	41 5c                	pop    %r12
  4025fe:	c3                   	retq   
  4025ff:	41 54                	push   %r12
  402601:	41 89 f4             	mov    %esi,%r12d
  402604:	8b 35 8a dd 23 00    	mov    0x23dd8a(%rip),%esi        # 640394 <stdout+0x274>
  40260a:	55                   	push   %rbp
  40260b:	48 89 fd             	mov    %rdi,%rbp
  40260e:	48 8b 3d 83 dd 23 00 	mov    0x23dd83(%rip),%rdi        # 640398 <stdout+0x278>
  402615:	83 c6 01             	add    $0x1,%esi
  402618:	89 35 76 dd 23 00    	mov    %esi,0x23dd76(%rip)        # 640394 <stdout+0x274>
  40261e:	53                   	push   %rbx
  40261f:	48 63 f6             	movslq %esi,%rsi
  402622:	48 85 ff             	test   %rdi,%rdi
  402625:	75 16                	jne    40263d <error+0x6be>
  402627:	48 8d 3c f5 00 00 00 	lea    0x0(,%rsi,8),%rdi
  40262e:	00 
  40262f:	e8 5c a5 01 00       	callq  41cb90 <error+0x1ac11>
  402634:	48 89 05 5d dd 23 00 	mov    %rax,0x23dd5d(%rip)        # 640398 <stdout+0x278>
  40263b:	eb 10                	jmp    40264d <error+0x6ce>
  40263d:	48 c1 e6 03          	shl    $0x3,%rsi
  402641:	e8 9a a4 01 00       	callq  41cae0 <error+0x1ab61>
  402646:	48 89 05 4b dd 23 00 	mov    %rax,0x23dd4b(%rip)        # 640398 <stdout+0x278>
  40264d:	48 63 05 40 dd 23 00 	movslq 0x23dd40(%rip),%rax        # 640394 <stdout+0x274>
  402654:	44 89 e6             	mov    %r12d,%esi
  402657:	48 89 ef             	mov    %rbp,%rdi
  40265a:	48 8d 1c c5 f8 ff ff 	lea    -0x8(,%rax,8),%rbx
  402661:	ff 
  402662:	48 03 1d 2f dd 23 00 	add    0x23dd2f(%rip),%rbx        # 640398 <stdout+0x278>
  402669:	e8 c2 8c 00 00       	callq  40b330 <error+0x93b1>
  40266e:	48 89 03             	mov    %rax,(%rbx)
  402671:	5b                   	pop    %rbx
  402672:	5d                   	pop    %rbp
  402673:	41 5c                	pop    %r12
  402675:	c3                   	retq   
  402676:	41 54                	push   %r12
  402678:	41 89 f4             	mov    %esi,%r12d
  40267b:	8b 35 2f dd 23 00    	mov    0x23dd2f(%rip),%esi        # 6403b0 <stdout+0x290>
  402681:	55                   	push   %rbp
  402682:	48 89 fd             	mov    %rdi,%rbp
  402685:	48 8b 3d 2c dd 23 00 	mov    0x23dd2c(%rip),%rdi        # 6403b8 <stdout+0x298>
  40268c:	83 c6 01             	add    $0x1,%esi
  40268f:	89 35 1b dd 23 00    	mov    %esi,0x23dd1b(%rip)        # 6403b0 <stdout+0x290>
  402695:	53                   	push   %rbx
  402696:	48 63 f6             	movslq %esi,%rsi
  402699:	48 85 ff             	test   %rdi,%rdi
  40269c:	75 16                	jne    4026b4 <error+0x735>
  40269e:	48 8d 3c f5 00 00 00 	lea    0x0(,%rsi,8),%rdi
  4026a5:	00 
  4026a6:	e8 e5 a4 01 00       	callq  41cb90 <error+0x1ac11>
  4026ab:	48 89 05 06 dd 23 00 	mov    %rax,0x23dd06(%rip)        # 6403b8 <stdout+0x298>
  4026b2:	eb 10                	jmp    4026c4 <error+0x745>
  4026b4:	48 c1 e6 03          	shl    $0x3,%rsi
  4026b8:	e8 23 a4 01 00       	callq  41cae0 <error+0x1ab61>
  4026bd:	48 89 05 f4 dc 23 00 	mov    %rax,0x23dcf4(%rip)        # 6403b8 <stdout+0x298>
  4026c4:	48 63 05 e5 dc 23 00 	movslq 0x23dce5(%rip),%rax        # 6403b0 <stdout+0x290>
  4026cb:	44 89 e6             	mov    %r12d,%esi
  4026ce:	48 89 ef             	mov    %rbp,%rdi
  4026d1:	48 8d 1c c5 f8 ff ff 	lea    -0x8(,%rax,8),%rbx
  4026d8:	ff 
  4026d9:	48 03 1d d8 dc 23 00 	add    0x23dcd8(%rip),%rbx        # 6403b8 <stdout+0x298>
  4026e0:	e8 4b 8c 00 00       	callq  40b330 <error+0x93b1>
  4026e5:	48 89 03             	mov    %rax,(%rbx)
  4026e8:	5b                   	pop    %rbx
  4026e9:	5d                   	pop    %rbp
  4026ea:	41 5c                	pop    %r12
  4026ec:	c3                   	retq   
  4026ed:	41 54                	push   %r12
  4026ef:	41 89 f4             	mov    %esi,%r12d
  4026f2:	8b 35 a8 dc 23 00    	mov    0x23dca8(%rip),%esi        # 6403a0 <stdout+0x280>
  4026f8:	55                   	push   %rbp
  4026f9:	48 89 fd             	mov    %rdi,%rbp
  4026fc:	48 8b 3d a5 dc 23 00 	mov    0x23dca5(%rip),%rdi        # 6403a8 <stdout+0x288>
  402703:	83 c6 01             	add    $0x1,%esi
  402706:	89 35 94 dc 23 00    	mov    %esi,0x23dc94(%rip)        # 6403a0 <stdout+0x280>
  40270c:	53                   	push   %rbx
  40270d:	48 63 f6             	movslq %esi,%rsi
  402710:	48 85 ff             	test   %rdi,%rdi
  402713:	75 16                	jne    40272b <error+0x7ac>
  402715:	48 8d 3c f5 00 00 00 	lea    0x0(,%rsi,8),%rdi
  40271c:	00 
  40271d:	e8 6e a4 01 00       	callq  41cb90 <error+0x1ac11>
  402722:	48 89 05 7f dc 23 00 	mov    %rax,0x23dc7f(%rip)        # 6403a8 <stdout+0x288>
  402729:	eb 10                	jmp    40273b <error+0x7bc>
  40272b:	48 c1 e6 03          	shl    $0x3,%rsi
  40272f:	e8 ac a3 01 00       	callq  41cae0 <error+0x1ab61>
  402734:	48 89 05 6d dc 23 00 	mov    %rax,0x23dc6d(%rip)        # 6403a8 <stdout+0x288>
  40273b:	48 63 05 5e dc 23 00 	movslq 0x23dc5e(%rip),%rax        # 6403a0 <stdout+0x280>
  402742:	44 89 e6             	mov    %r12d,%esi
  402745:	48 89 ef             	mov    %rbp,%rdi
  402748:	48 8d 1c c5 f8 ff ff 	lea    -0x8(,%rax,8),%rbx
  40274f:	ff 
  402750:	48 03 1d 51 dc 23 00 	add    0x23dc51(%rip),%rbx        # 6403a8 <stdout+0x288>
  402757:	e8 d4 8b 00 00       	callq  40b330 <error+0x93b1>
  40275c:	48 89 03             	mov    %rax,(%rbx)
  40275f:	5b                   	pop    %rbx
  402760:	5d                   	pop    %rbp
  402761:	41 5c                	pop    %r12
  402763:	c3                   	retq   
  402764:	55                   	push   %rbp
  402765:	48 89 e5             	mov    %rsp,%rbp
  402768:	41 57                	push   %r15
  40276a:	41 56                	push   %r14
  40276c:	49 89 f6             	mov    %rsi,%r14
  40276f:	41 55                	push   %r13
  402771:	41 54                	push   %r12
  402773:	53                   	push   %rbx
  402774:	48 81 ec d8 01 00 00 	sub    $0x1d8,%rsp
  40277b:	48 89 bd 30 fe ff ff 	mov    %rdi,-0x1d0(%rbp)
  402782:	48 8b 3d f7 dc 23 00 	mov    0x23dcf7(%rip),%rdi        # 640480 <stdout+0x360>
  402789:	64 48 8b 04 25 28 00 	mov    %fs:0x28,%rax
  402790:	00 00 
  402792:	48 89 45 c8          	mov    %rax,-0x38(%rbp)
  402796:	31 c0                	xor    %eax,%eax
  402798:	48 85 ff             	test   %rdi,%rdi
  40279b:	0f 84 c5 05 00 00    	je     402d66 <error+0xde7>
  4027a1:	be 98 de 41 00       	mov    $0x41de98,%esi
  4027a6:	e8 a5 f5 ff ff       	callq  401d50 <strcmp@plt>
  4027ab:	85 c0                	test   %eax,%eax
  4027ad:	0f 84 b3 05 00 00    	je     402d66 <error+0xde7>
  4027b3:	45 31 ed             	xor    %r13d,%r13d
  4027b6:	c7 85 68 fe ff ff 00 	movl   $0x0,-0x198(%rbp)
  4027bd:	00 00 00 
  4027c0:	41 83 cc ff          	or     $0xffffffffffffffff,%r12d
  4027c4:	45 31 ff             	xor    %r15d,%r15d
  4027c7:	eb 69                	jmp    402832 <error+0x8b3>
  4027c9:	be 41 ce 41 00       	mov    $0x41ce41,%esi
  4027ce:	48 89 df             	mov    %rbx,%rdi
  4027d1:	e8 7a f5 ff ff       	callq  401d50 <strcmp@plt>
  4027d6:	85 c0                	test   %eax,%eax
  4027d8:	0f 84 88 05 00 00    	je     402d66 <error+0xde7>
  4027de:	80 3b 2d             	cmpb   $0x2d,(%rbx)
  4027e1:	75 15                	jne    4027f8 <error+0x879>
  4027e3:	80 7b 01 6f          	cmpb   $0x6f,0x1(%rbx)
  4027e7:	75 0f                	jne    4027f8 <error+0x879>
  4027e9:	41 83 fc ff          	cmp    $0xffffffffffffffff,%r12d
  4027ed:	0f 85 73 05 00 00    	jne    402d66 <error+0xde7>
  4027f3:	45 89 fc             	mov    %r15d,%r12d
  4027f6:	eb 32                	jmp    40282a <error+0x8ab>
  4027f8:	be 5d dd 41 00       	mov    $0x41dd5d,%esi
  4027fd:	48 89 df             	mov    %rbx,%rdi
  402800:	e8 4b f5 ff ff       	callq  401d50 <strcmp@plt>
  402805:	85 c0                	test   %eax,%eax
  402807:	75 0c                	jne    402815 <error+0x896>
  402809:	c7 85 68 fe ff ff 01 	movl   $0x1,-0x198(%rbp)
  402810:	00 00 00 
  402813:	eb 15                	jmp    40282a <error+0x8ab>
  402815:	be 44 ce 41 00       	mov    $0x41ce44,%esi
  40281a:	48 89 df             	mov    %rbx,%rdi
  40281d:	e8 2e f5 ff ff       	callq  401d50 <strcmp@plt>
  402822:	85 c0                	test   %eax,%eax
  402824:	0f 84 3c 05 00 00    	je     402d66 <error+0xde7>
  40282a:	41 83 c7 01          	add    $0x1,%r15d
  40282e:	49 83 c5 08          	add    $0x8,%r13
  402832:	4b 8b 1c 2e          	mov    (%r14,%r13,1),%rbx
  402836:	48 85 db             	test   %rbx,%rbx
  402839:	75 8e                	jne    4027c9 <error+0x84a>
  40283b:	83 bd 68 fe ff ff 00 	cmpl   $0x0,-0x198(%rbp)
  402842:	0f 84 1e 05 00 00    	je     402d66 <error+0xde7>
  402848:	41 83 fc ff          	cmp    $0xffffffffffffffff,%r12d
  40284c:	0f 84 14 05 00 00    	je     402d66 <error+0xde7>
  402852:	48 8d 55 90          	lea    -0x70(%rbp),%rdx
  402856:	31 c0                	xor    %eax,%eax
  402858:	b9 0c 00 00 00       	mov    $0xc,%ecx
  40285d:	4c 89 f6             	mov    %r14,%rsi
  402860:	4d 63 e4             	movslq %r12d,%r12
  402863:	48 89 d7             	mov    %rdx,%rdi
  402866:	f3 ab                	rep stos %eax,%es:(%rdi)
  402868:	41 8d 47 03          	lea    0x3(%r15),%eax
  40286c:	41 83 c7 01          	add    $0x1,%r15d
  402870:	44 89 bd 3c fe ff ff 	mov    %r15d,-0x1c4(%rbp)
  402877:	48 98                	cltq   
  402879:	48 8d 04 c5 1e 00 00 	lea    0x1e(,%rax,8),%rax
  402880:	00 
  402881:	48 83 e0 f0          	and    $0xfffffffffffffff0,%rax
  402885:	48 29 c4             	sub    %rax,%rsp
  402888:	49 63 c7             	movslq %r15d,%rax
  40288b:	48 8d 5c 24 0f       	lea    0xf(%rsp),%rbx
  402890:	48 8d 0c c5 00 00 00 	lea    0x0(,%rax,8),%rcx
  402897:	00 
  402898:	48 83 e3 f0          	and    $0xfffffffffffffff0,%rbx
  40289c:	48 89 df             	mov    %rbx,%rdi
  40289f:	4a 8d 14 e3          	lea    (%rbx,%r12,8),%rdx
  4028a3:	f3 a4                	rep movsb %ds:(%rsi),%es:(%rdi)
  4028a5:	4a c7 04 2b 52 ce 41 	movq   $0x41ce52,(%rbx,%r13,1)
  4028ac:	00 
  4028ad:	48 c7 07 00 00 00 00 	movq   $0x0,(%rdi)
  4028b4:	48 8b 0a             	mov    (%rdx),%rcx
  4028b7:	48 89 bd 28 fe ff ff 	mov    %rdi,-0x1d8(%rbp)
  4028be:	80 79 02 00          	cmpb   $0x0,0x2(%rcx)
  4028c2:	75 0b                	jne    4028cf <error+0x950>
  4028c4:	4a c7 44 e3 08 98 de 	movq   $0x41de98,0x8(%rbx,%r12,8)
  4028cb:	41 00 
  4028cd:	eb 07                	jmp    4028d6 <error+0x957>
  4028cf:	48 c7 02 62 ce 41 00 	movq   $0x41ce62,(%rdx)
  4028d6:	4c 8d 65 90          	lea    -0x70(%rbp),%r12
  4028da:	4c 8d 44 c3 08       	lea    0x8(%rbx,%rax,8),%r8
  4028df:	c7 85 54 fe ff ff 00 	movl   $0x0,-0x1ac(%rbp)
  4028e6:	00 00 00 
  4028e9:	c7 85 64 fe ff ff 00 	movl   $0x0,-0x19c(%rbp)
  4028f0:	00 00 00 
  4028f3:	4c 89 85 10 fe ff ff 	mov    %r8,-0x1f0(%rbp)
  4028fa:	4c 89 a5 58 fe ff ff 	mov    %r12,-0x1a8(%rbp)
  402901:	4c 89 a5 68 fe ff ff 	mov    %r12,-0x198(%rbp)
  402908:	bf 66 ce 41 00       	mov    $0x41ce66,%edi
  40290d:	41 83 cd ff          	or     $0xffffffffffffffff,%r13d
  402911:	e8 b1 7c 00 00       	callq  40a5c7 <error+0x8648>
  402916:	4c 8b 9d 58 fe ff ff 	mov    -0x1a8(%rbp),%r11
  40291d:	44 8b 95 54 fe ff ff 	mov    -0x1ac(%rbp),%r10d
  402924:	bf 6b ce 41 00       	mov    $0x41ce6b,%edi
  402929:	41 83 c2 01          	add    $0x1,%r10d
  40292d:	49 89 03             	mov    %rax,(%r11)
  402930:	44 89 95 0c fe ff ff 	mov    %r10d,-0x1f4(%rbp)
  402937:	e8 8b 7c 00 00       	callq  40a5c7 <error+0x8648>
  40293c:	83 bd 64 fe ff ff 02 	cmpl   $0x2,-0x19c(%rbp)
  402943:	4c 8b 8d 58 fe ff ff 	mov    -0x1a8(%rbp),%r9
  40294a:	49 89 41 08          	mov    %rax,0x8(%r9)
  40294e:	0f 85 4c 02 00 00    	jne    402ba0 <error+0xc21>
  402954:	bf 00 20 00 00       	mov    $0x2000,%edi
  402959:	45 31 e4             	xor    %r12d,%r12d
  40295c:	e8 2f a2 01 00       	callq  41cb90 <error+0x1ac11>
  402961:	48 89 85 40 fe ff ff 	mov    %rax,-0x1c0(%rbp)
  402968:	48 05 00 10 00 00    	add    $0x1000,%rax
  40296e:	48 89 9d 48 fe ff ff 	mov    %rbx,-0x1b8(%rbp)
  402975:	48 89 85 20 fe ff ff 	mov    %rax,-0x1e0(%rbp)
  40297c:	49 63 dc             	movslq %r12d,%rbx
  40297f:	31 f6                	xor    %esi,%esi
  402981:	31 c0                	xor    %eax,%eax
  402983:	48 8b 7c dd 90       	mov    -0x70(%rbp,%rbx,8),%rdi
  402988:	e8 13 f5 ff ff       	callq  401ea0 <open@plt>
  40298d:	41 89 c6             	mov    %eax,%r14d
  402990:	41 8d 44 24 02       	lea    0x2(%r12),%eax
  402995:	31 f6                	xor    %esi,%esi
  402997:	48 98                	cltq   
  402999:	48 8b 7c c5 90       	mov    -0x70(%rbp,%rax,8),%rdi
  40299e:	31 c0                	xor    %eax,%eax
  4029a0:	e8 fb f4 ff ff       	callq  401ea0 <open@plt>
  4029a5:	85 c0                	test   %eax,%eax
  4029a7:	41 89 c5             	mov    %eax,%r13d
  4029aa:	78 35                	js     4029e1 <error+0xa62>
  4029ac:	45 85 f6             	test   %r14d,%r14d
  4029af:	78 30                	js     4029e1 <error+0xa62>
  4029b1:	48 8d 95 00 ff ff ff 	lea    -0x100(%rbp),%rdx
  4029b8:	44 89 f6             	mov    %r14d,%esi
  4029bb:	bf 01 00 00 00       	mov    $0x1,%edi
  4029c0:	e8 2b f3 ff ff       	callq  401cf0 <__fxstat@plt>
  4029c5:	85 c0                	test   %eax,%eax
  4029c7:	78 18                	js     4029e1 <error+0xa62>
  4029c9:	48 8d 95 70 fe ff ff 	lea    -0x190(%rbp),%rdx
  4029d0:	44 89 ee             	mov    %r13d,%esi
  4029d3:	bf 01 00 00 00       	mov    $0x1,%edi
  4029d8:	e8 13 f3 ff ff       	callq  401cf0 <__fxstat@plt>
  4029dd:	85 c0                	test   %eax,%eax
  4029df:	79 20                	jns    402a01 <error+0xa82>
  4029e1:	44 89 f7             	mov    %r14d,%edi
  4029e4:	48 8b 9d 48 fe ff ff 	mov    -0x1b8(%rbp),%rbx
  4029eb:	41 83 cc ff          	or     $0xffffffffffffffff,%r12d
  4029ef:	e8 8c ef ff ff       	callq  401980 <close@plt>
  4029f4:	44 89 ef             	mov    %r13d,%edi
  4029f7:	e8 84 ef ff ff       	callq  401980 <close@plt>
  4029fc:	e9 d4 00 00 00       	jmpq   402ad5 <error+0xb56>
  402a01:	4c 8b bd 30 ff ff ff 	mov    -0xd0(%rbp),%r15
  402a08:	4c 3b bd a0 fe ff ff 	cmp    -0x160(%rbp),%r15
  402a0f:	74 1c                	je     402a2d <error+0xaae>
  402a11:	44 89 f7             	mov    %r14d,%edi
  402a14:	48 8b 9d 48 fe ff ff 	mov    -0x1b8(%rbp),%rbx
  402a1b:	e8 60 ef ff ff       	callq  401980 <close@plt>
  402a20:	44 89 ef             	mov    %r13d,%edi
  402a23:	e8 58 ef ff ff       	callq  401980 <close@plt>
  402a28:	e9 a8 00 00 00       	jmpq   402ad5 <error+0xb56>
  402a2d:	44 89 a5 1c fe ff ff 	mov    %r12d,-0x1e4(%rbp)
  402a34:	eb 61                	jmp    402a97 <error+0xb18>
  402a36:	49 81 ff 00 10 00 00 	cmp    $0x1000,%r15
  402a3d:	48 8b b5 40 fe ff ff 	mov    -0x1c0(%rbp),%rsi
  402a44:	bb 00 10 00 00       	mov    $0x1000,%ebx
  402a49:	49 0f 46 df          	cmovbe %r15,%rbx
  402a4d:	44 89 f7             	mov    %r14d,%edi
  402a50:	48 89 da             	mov    %rbx,%rdx
  402a53:	e8 f8 ef ff ff       	callq  401a50 <read@plt>
  402a58:	48 63 f3             	movslq %ebx,%rsi
  402a5b:	49 89 c4             	mov    %rax,%r12
  402a5e:	48 39 f0             	cmp    %rsi,%rax
  402a61:	75 3b                	jne    402a9e <error+0xb1f>
  402a63:	48 8b b5 20 fe ff ff 	mov    -0x1e0(%rbp),%rsi
  402a6a:	48 89 da             	mov    %rbx,%rdx
  402a6d:	44 89 ef             	mov    %r13d,%edi
  402a70:	e8 db ef ff ff       	callq  401a50 <read@plt>
  402a75:	4c 39 e0             	cmp    %r12,%rax
  402a78:	75 24                	jne    402a9e <error+0xb1f>
  402a7a:	48 8b b5 20 fe ff ff 	mov    -0x1e0(%rbp),%rsi
  402a81:	48 8b bd 40 fe ff ff 	mov    -0x1c0(%rbp),%rdi
  402a88:	48 89 da             	mov    %rbx,%rdx
  402a8b:	e8 00 f3 ff ff       	callq  401d90 <memcmp@plt>
  402a90:	85 c0                	test   %eax,%eax
  402a92:	75 10                	jne    402aa4 <error+0xb25>
  402a94:	49 29 df             	sub    %rbx,%r15
  402a97:	4d 85 ff             	test   %r15,%r15
  402a9a:	75 9a                	jne    402a36 <error+0xab7>
  402a9c:	eb 06                	jmp    402aa4 <error+0xb25>
  402a9e:	41 83 cc ff          	or     $0xffffffffffffffff,%r12d
  402aa2:	eb 07                	jmp    402aab <error+0xb2c>
  402aa4:	44 8b a5 1c fe ff ff 	mov    -0x1e4(%rbp),%r12d
  402aab:	44 89 f7             	mov    %r14d,%edi
  402aae:	e8 cd ee ff ff       	callq  401980 <close@plt>
  402ab3:	44 89 ef             	mov    %r13d,%edi
  402ab6:	e8 c5 ee ff ff       	callq  401980 <close@plt>
  402abb:	4d 85 ff             	test   %r15,%r15
  402abe:	75 0e                	jne    402ace <error+0xb4f>
  402ac0:	41 83 c4 01          	add    $0x1,%r12d
  402ac4:	41 83 fc 01          	cmp    $0x1,%r12d
  402ac8:	0f 8e ae fe ff ff    	jle    40297c <error+0x9fd>
  402ace:	48 8b 9d 48 fe ff ff 	mov    -0x1b8(%rbp),%rbx
  402ad5:	48 8b bd 40 fe ff ff 	mov    -0x1c0(%rbp),%rdi
  402adc:	e8 5f f0 ff ff       	callq  401b40 <free@plt>
  402ae1:	41 83 fc ff          	cmp    $0xffffffffffffffff,%r12d
  402ae5:	0f 84 29 02 00 00    	je     402d14 <error+0xd95>
  402aeb:	41 83 fc 02          	cmp    $0x2,%r12d
  402aef:	0f 85 c2 01 00 00    	jne    402cb7 <error+0xd38>
  402af5:	4c 8b ad 58 fe ff ff 	mov    -0x1a8(%rbp),%r13
  402afc:	31 c0                	xor    %eax,%eax
  402afe:	be 02 00 00 00       	mov    $0x2,%esi
  402b03:	49 8b 7d 00          	mov    0x0(%r13),%rdi
  402b07:	e8 94 f3 ff ff       	callq  401ea0 <open@plt>
  402b0c:	85 c0                	test   %eax,%eax
  402b0e:	41 89 c5             	mov    %eax,%r13d
  402b11:	0f 88 fd 01 00 00    	js     402d14 <error+0xd95>
  402b17:	ba 02 00 00 00       	mov    $0x2,%edx
  402b1c:	be 70 ce 41 00       	mov    $0x41ce70,%esi
  402b21:	89 c7                	mov    %eax,%edi
  402b23:	49 89 de             	mov    %rbx,%r14
  402b26:	45 31 e4             	xor    %r12d,%r12d
  402b29:	45 31 ff             	xor    %r15d,%r15d
  402b2c:	e8 3f f3 ff ff       	callq  401e70 <write@plt>
  402b31:	ba 01 00 00 00       	mov    $0x1,%edx
  402b36:	be 81 c6 43 00       	mov    $0x43c681,%esi
  402b3b:	44 89 ef             	mov    %r13d,%edi
  402b3e:	e8 2d f3 ff ff       	callq  401e70 <write@plt>
  402b43:	49 8b 36             	mov    (%r14),%rsi
  402b46:	48 83 c9 ff          	or     $0xffffffffffffffff,%rcx
  402b4a:	44 88 f8             	mov    %r15b,%al
  402b4d:	41 83 c4 01          	add    $0x1,%r12d
  402b51:	49 83 c6 08          	add    $0x8,%r14
  402b55:	48 89 f7             	mov    %rsi,%rdi
  402b58:	f2 ae                	repnz scas %es:(%rdi),%al
  402b5a:	44 89 ef             	mov    %r13d,%edi
  402b5d:	48 f7 d1             	not    %rcx
  402b60:	48 8d 51 ff          	lea    -0x1(%rcx),%rdx
  402b64:	e8 07 f3 ff ff       	callq  401e70 <write@plt>
  402b69:	44 3b a5 3c fe ff ff 	cmp    -0x1c4(%rbp),%r12d
  402b70:	7c bf                	jl     402b31 <error+0xbb2>
  402b72:	ba 01 00 00 00       	mov    $0x1,%edx
  402b77:	be 5a d2 41 00       	mov    $0x41d25a,%esi
  402b7c:	44 89 ef             	mov    %r13d,%edi
  402b7f:	e8 ec f2 ff ff       	callq  401e70 <write@plt>
  402b84:	4c 8b bd 28 fe ff ff 	mov    -0x1d8(%rbp),%r15
  402b8b:	4c 8b b5 10 fe ff ff 	mov    -0x1f0(%rbp),%r14
  402b92:	49 c7 07 41 ce 41 00 	movq   $0x41ce41,(%r15)
  402b99:	49 c7 06 00 00 00 00 	movq   $0x0,(%r14)
  402ba0:	41 be 01 00 00 00    	mov    $0x1,%r14d
  402ba6:	45 31 e4             	xor    %r12d,%r12d
  402ba9:	e8 62 f2 ff ff       	callq  401e10 <fork@plt>
  402bae:	83 f8 00             	cmp    $0x0,%eax
  402bb1:	7c 08                	jl     402bbb <error+0xc3c>
  402bb3:	0f 85 d5 00 00 00    	jne    402c8e <error+0xd0f>
  402bb9:	eb 1b                	jmp    402bd6 <error+0xc57>
  402bbb:	44 89 f7             	mov    %r14d,%edi
  402bbe:	41 83 c4 01          	add    $0x1,%r12d
  402bc2:	e8 49 f0 ff ff       	callq  401c10 <sleep@plt>
  402bc7:	41 83 fc 04          	cmp    $0x4,%r12d
  402bcb:	0f 84 43 01 00 00    	je     402d14 <error+0xd95>
  402bd1:	45 01 f6             	add    %r14d,%r14d
  402bd4:	eb d3                	jmp    402ba9 <error+0xc2a>
  402bd6:	83 bd 64 fe ff ff 02 	cmpl   $0x2,-0x19c(%rbp)
  402bdd:	74 1b                	je     402bfa <error+0xc7b>
  402bdf:	48 63 95 54 fe ff ff 	movslq -0x1ac(%rbp),%rdx
  402be6:	be 02 00 00 00       	mov    $0x2,%esi
  402beb:	31 c0                	xor    %eax,%eax
  402bed:	48 8b 7c d5 90       	mov    -0x70(%rbp,%rdx,8),%rdi
  402bf2:	e8 a9 f2 ff ff       	callq  401ea0 <open@plt>
  402bf7:	41 89 c5             	mov    %eax,%r13d
  402bfa:	45 85 ed             	test   %r13d,%r13d
  402bfd:	0f 88 83 00 00 00    	js     402c86 <error+0xd07>
  402c03:	41 83 fd 01          	cmp    $0x1,%r13d
  402c07:	74 1a                	je     402c23 <error+0xca4>
  402c09:	bf 01 00 00 00       	mov    $0x1,%edi
  402c0e:	e8 6d ed ff ff       	callq  401980 <close@plt>
  402c13:	44 89 ef             	mov    %r13d,%edi
  402c16:	e8 85 ee ff ff       	callq  401aa0 <dup@plt>
  402c1b:	44 89 ef             	mov    %r13d,%edi
  402c1e:	e8 5d ed ff ff       	callq  401980 <close@plt>
  402c23:	4c 63 a5 0c fe ff ff 	movslq -0x1f4(%rbp),%r12
  402c2a:	31 c0                	xor    %eax,%eax
  402c2c:	be 02 00 00 00       	mov    $0x2,%esi
  402c31:	4a 8b 7c e5 90       	mov    -0x70(%rbp,%r12,8),%rdi
  402c36:	e8 65 f2 ff ff       	callq  401ea0 <open@plt>
  402c3b:	85 c0                	test   %eax,%eax
  402c3d:	41 89 c4             	mov    %eax,%r12d
  402c40:	78 44                	js     402c86 <error+0xd07>
  402c42:	83 f8 02             	cmp    $0x2,%eax
  402c45:	74 1a                	je     402c61 <error+0xce2>
  402c47:	bf 02 00 00 00       	mov    $0x2,%edi
  402c4c:	e8 2f ed ff ff       	callq  401980 <close@plt>
  402c51:	44 89 e7             	mov    %r12d,%edi
  402c54:	e8 47 ee ff ff       	callq  401aa0 <dup@plt>
  402c59:	44 89 e7             	mov    %r12d,%edi
  402c5c:	e8 1f ed ff ff       	callq  401980 <close@plt>
  402c61:	48 8b 3b             	mov    (%rbx),%rdi
  402c64:	48 3b bd 30 fe ff ff 	cmp    -0x1d0(%rbp),%rdi
  402c6b:	75 11                	jne    402c7e <error+0xcff>
  402c6d:	48 8b bd 30 fe ff ff 	mov    -0x1d0(%rbp),%rdi
  402c74:	48 89 de             	mov    %rbx,%rsi
  402c77:	e8 74 ed ff ff       	callq  4019f0 <execvp@plt>
  402c7c:	eb 08                	jmp    402c86 <error+0xd07>
  402c7e:	48 89 de             	mov    %rbx,%rsi
  402c81:	e8 da ec ff ff       	callq  401960 <execv@plt>
  402c86:	83 cf ff             	or     $0xffffffffffffffff,%edi
  402c89:	e8 72 ed ff ff       	callq  401a00 <exit@plt>
  402c8e:	48 8d 75 c4          	lea    -0x3c(%rbp),%rsi
  402c92:	31 d2                	xor    %edx,%edx
  402c94:	89 c7                	mov    %eax,%edi
  402c96:	e8 25 f0 ff ff       	callq  401cc0 <waitpid@plt>
  402c9b:	85 c0                	test   %eax,%eax
  402c9d:	78 75                	js     402d14 <error+0xd95>
  402c9f:	83 bd 64 fe ff ff 02 	cmpl   $0x2,-0x19c(%rbp)
  402ca6:	74 24                	je     402ccc <error+0xd4d>
  402ca8:	8b 45 c4             	mov    -0x3c(%rbp),%eax
  402cab:	a8 7f                	test   $0x7f,%al
  402cad:	75 08                	jne    402cb7 <error+0xd38>
  402caf:	0f b6 f4             	movzbl %ah,%esi
  402cb2:	83 fe 04             	cmp    $0x4,%esi
  402cb5:	74 6a                	je     402d21 <error+0xda2>
  402cb7:	bf d8 e2 41 00       	mov    $0x41e2d8,%edi
  402cbc:	31 c0                	xor    %eax,%eax
  402cbe:	4c 8b a5 68 fe ff ff 	mov    -0x198(%rbp),%r12
  402cc5:	e8 06 f2 ff ff       	callq  401ed0 <vfork@plt+0x10>
  402cca:	eb 4f                	jmp    402d1b <error+0xd9c>
  402ccc:	44 89 ef             	mov    %r13d,%edi
  402ccf:	e8 ac ec ff ff       	callq  401980 <close@plt>
  402cd4:	8b 45 c4             	mov    -0x3c(%rbp),%eax
  402cd7:	a8 7f                	test   $0x7f,%al
  402cd9:	75 46                	jne    402d21 <error+0xda2>
  402cdb:	0f b6 c4             	movzbl %ah,%eax
  402cde:	85 c0                	test   %eax,%eax
  402ce0:	75 3f                	jne    402d21 <error+0xda2>
  402ce2:	48 63 9d 54 fe ff ff 	movslq -0x1ac(%rbp),%rbx
  402ce9:	bf 20 e3 41 00       	mov    $0x41e320,%edi
  402cee:	4c 8b a5 68 fe ff ff 	mov    -0x198(%rbp),%r12
  402cf5:	48 8b 74 dd 90       	mov    -0x70(%rbp,%rbx,8),%rsi
  402cfa:	e8 d1 f1 ff ff       	callq  401ed0 <vfork@plt+0x10>
  402cff:	48 8b 7c dd 90       	mov    -0x70(%rbp,%rbx,8),%rdi
  402d04:	e8 37 ee ff ff       	callq  401b40 <free@plt>
  402d09:	48 c7 44 dd 90 00 00 	movq   $0x0,-0x70(%rbp,%rbx,8)
  402d10:	00 00 
  402d12:	eb 07                	jmp    402d1b <error+0xd9c>
  402d14:	4c 8b a5 68 fe ff ff 	mov    -0x198(%rbp),%r12
  402d1b:	48 8d 5d c0          	lea    -0x40(%rbp),%rbx
  402d1f:	eb 25                	jmp    402d46 <error+0xdc7>
  402d21:	83 85 64 fe ff ff 01 	addl   $0x1,-0x19c(%rbp)
  402d28:	48 83 85 58 fe ff ff 	addq   $0x10,-0x1a8(%rbp)
  402d2f:	10 
  402d30:	83 85 54 fe ff ff 02 	addl   $0x2,-0x1ac(%rbp)
  402d37:	83 bd 64 fe ff ff 03 	cmpl   $0x3,-0x19c(%rbp)
  402d3e:	0f 85 c4 fb ff ff    	jne    402908 <error+0x989>
  402d44:	eb ce                	jmp    402d14 <error+0xd95>
  402d46:	49 8b 3c 24          	mov    (%r12),%rdi
  402d4a:	48 85 ff             	test   %rdi,%rdi
  402d4d:	74 0e                	je     402d5d <error+0xdde>
  402d4f:	e8 6c ed ff ff       	callq  401ac0 <unlink@plt>
  402d54:	49 8b 3c 24          	mov    (%r12),%rdi
  402d58:	e8 e3 ed ff ff       	callq  401b40 <free@plt>
  402d5d:	49 83 c4 08          	add    $0x8,%r12
  402d61:	49 39 dc             	cmp    %rbx,%r12
  402d64:	75 e0                	jne    402d46 <error+0xdc7>
  402d66:	48 8b 45 c8          	mov    -0x38(%rbp),%rax
  402d6a:	64 48 33 04 25 28 00 	xor    %fs:0x28,%rax
  402d71:	00 00 
  402d73:	74 05                	je     402d7a <error+0xdfb>
  402d75:	e8 c6 ef ff ff       	callq  401d40 <__stack_chk_fail@plt>
  402d7a:	48 8d 65 d8          	lea    -0x28(%rbp),%rsp
  402d7e:	5b                   	pop    %rbx
  402d7f:	41 5c                	pop    %r12
  402d81:	41 5d                	pop    %r13
  402d83:	41 5e                	pop    %r14
  402d85:	41 5f                	pop    %r15
  402d87:	c9                   	leaveq 
  402d88:	c3                   	retq   
  402d89:	41 54                	push   %r12
  402d8b:	ba 09 00 00 00       	mov    $0x9,%edx
  402d90:	55                   	push   %rbp
  402d91:	48 89 f5             	mov    %rsi,%rbp
  402d94:	be 70 e3 41 00       	mov    $0x41e370,%esi
  402d99:	53                   	push   %rbx
  402d9a:	48 89 fb             	mov    %rdi,%rbx
  402d9d:	48 83 ec 40          	sub    $0x40,%rsp
  402da1:	48 89 e7             	mov    %rsp,%rdi
  402da4:	e8 fe 4e 00 00       	callq  407ca7 <error+0x5d28>
  402da9:	85 c0                	test   %eax,%eax
  402dab:	b9 a6 21 00 00       	mov    $0x21a6,%ecx
  402db0:	75 2f                	jne    402de1 <error+0xe62>
  402db2:	45 31 c0             	xor    %r8d,%r8d
  402db5:	31 c9                	xor    %ecx,%ecx
  402db7:	31 d2                	xor    %edx,%edx
  402db9:	48 89 de             	mov    %rbx,%rsi
  402dbc:	48 89 e7             	mov    %rsp,%rdi
  402dbf:	e8 28 6f 00 00       	callq  409cec <error+0x7d6d>
  402dc4:	83 f8 01             	cmp    $0x1,%eax
  402dc7:	75 0f                	jne    402dd8 <error+0xe59>
  402dc9:	48 89 de             	mov    %rbx,%rsi
  402dcc:	bf 73 ce 41 00       	mov    $0x41ce73,%edi
  402dd1:	31 c0                	xor    %eax,%eax
  402dd3:	e8 26 f3 ff ff       	callq  4020fe <error+0x17f>
  402dd8:	85 c0                	test   %eax,%eax
  402dda:	74 1b                	je     402df7 <error+0xe78>
  402ddc:	b9 ab 21 00 00       	mov    $0x21ab,%ecx
  402de1:	ba f4 cd 41 00       	mov    $0x41cdf4,%edx
  402de6:	be b0 55 42 00       	mov    $0x4255b0,%esi
  402deb:	bf 78 e1 41 00       	mov    $0x41e178,%edi
  402df0:	31 c0                	xor    %eax,%eax
  402df2:	e8 eb f3 ff ff       	callq  4021e2 <error+0x263>
  402df7:	45 31 c0             	xor    %r8d,%r8d
  402dfa:	31 c9                	xor    %ecx,%ecx
  402dfc:	31 d2                	xor    %edx,%edx
  402dfe:	48 89 ee             	mov    %rbp,%rsi
  402e01:	48 89 e7             	mov    %rsp,%rdi
  402e04:	e8 e3 6e 00 00       	callq  409cec <error+0x7d6d>
  402e09:	83 f8 01             	cmp    $0x1,%eax
  402e0c:	75 0f                	jne    402e1d <error+0xe9e>
  402e0e:	48 89 ee             	mov    %rbp,%rsi
  402e11:	bf 73 ce 41 00       	mov    $0x41ce73,%edi
  402e16:	31 c0                	xor    %eax,%eax
  402e18:	e8 e1 f2 ff ff       	callq  4020fe <error+0x17f>
  402e1d:	85 c0                	test   %eax,%eax
  402e1f:	b9 b0 21 00 00       	mov    $0x21b0,%ecx
  402e24:	75 bb                	jne    402de1 <error+0xe62>
  402e26:	48 89 ee             	mov    %rbp,%rsi
  402e29:	48 89 df             	mov    %rbx,%rdi
  402e2c:	e8 1f ee ff ff       	callq  401c50 <strverscmp@plt>
  402e31:	48 83 c4 40          	add    $0x40,%rsp
  402e35:	5b                   	pop    %rbx
  402e36:	5d                   	pop    %rbp
  402e37:	41 5c                	pop    %r12
  402e39:	c3                   	retq   
  402e3a:	41 57                	push   %r15
  402e3c:	41 56                	push   %r14
  402e3e:	41 55                	push   %r13
  402e40:	41 54                	push   %r12
  402e42:	55                   	push   %rbp
  402e43:	53                   	push   %rbx
  402e44:	48 89 f3             	mov    %rsi,%rbx
  402e47:	48 83 ec 28          	sub    $0x28,%rsp
  402e4b:	83 ff 02             	cmp    $0x2,%edi
  402e4e:	7f 0c                	jg     402e5c <error+0xedd>
  402e50:	bf 98 e3 41 00       	mov    $0x41e398,%edi
  402e55:	31 c0                	xor    %eax,%eax
  402e57:	e8 a2 f2 ff ff       	callq  4020fe <error+0x17f>
  402e5c:	48 8b 16             	mov    (%rsi),%rdx
  402e5f:	8a 02                	mov    (%rdx),%al
  402e61:	84 c0                	test   %al,%al
  402e63:	75 19                	jne    402e7e <error+0xeff>
  402e65:	b9 db 21 00 00       	mov    $0x21db,%ecx
  402e6a:	ba f4 cd 41 00       	mov    $0x41cdf4,%edx
  402e6f:	be 90 55 42 00       	mov    $0x425590,%esi
  402e74:	bf 78 e1 41 00       	mov    $0x41e178,%edi
  402e79:	e8 64 f3 ff ff       	callq  4021e2 <error+0x263>
  402e7e:	8a 52 01             	mov    0x1(%rdx),%dl
  402e81:	80 fa 3e             	cmp    $0x3e,%dl
  402e84:	74 05                	je     402e8b <error+0xf0c>
  402e86:	80 fa 3c             	cmp    $0x3c,%dl
  402e89:	75 09                	jne    402e94 <error+0xf15>
  402e8b:	3c 21                	cmp    $0x21,%al
  402e8d:	bd 02 00 00 00       	mov    $0x2,%ebp
  402e92:	75 05                	jne    402e99 <error+0xf1a>
  402e94:	bd 01 00 00 00       	mov    $0x1,%ebp
  402e99:	8d 45 03             	lea    0x3(%rbp),%eax
  402e9c:	39 f8                	cmp    %edi,%eax
  402e9e:	74 0c                	je     402eac <error+0xf2d>
  402ea0:	bf c0 e3 41 00       	mov    $0x41e3c0,%edi
  402ea5:	31 c0                	xor    %eax,%eax
  402ea7:	e8 52 f2 ff ff       	callq  4020fe <error+0x17f>
  402eac:	48 63 d5             	movslq %ebp,%rdx
  402eaf:	31 c0                	xor    %eax,%eax
  402eb1:	48 83 c9 ff          	or     $0xffffffffffffffff,%rcx
  402eb5:	4c 8d 64 d3 08       	lea    0x8(%rbx,%rdx,8),%r12
  402eba:	48 89 54 24 18       	mov    %rdx,0x18(%rsp)
  402ebf:	45 31 ff             	xor    %r15d,%r15d
  402ec2:	45 31 f6             	xor    %r14d,%r14d
  402ec5:	45 31 ed             	xor    %r13d,%r13d
  402ec8:	49 8b 3c 24          	mov    (%r12),%rdi
  402ecc:	f2 ae                	repnz scas %es:(%rdi),%al
  402ece:	48 f7 d1             	not    %rcx
  402ed1:	48 83 e9 01          	sub    $0x1,%rcx
  402ed5:	48 89 4c 24 08       	mov    %rcx,0x8(%rsp)
  402eda:	eb 4e                	jmp    402f2a <error+0xfab>
  402edc:	48 8b 35 4d d5 23 00 	mov    0x23d54d(%rip),%rsi        # 640430 <stdout+0x310>
  402ee3:	48 8b 54 24 08       	mov    0x8(%rsp),%rdx
  402ee8:	4c 01 fe             	add    %r15,%rsi
  402eeb:	48 89 74 24 10       	mov    %rsi,0x10(%rsp)
  402ef0:	4c 8b 44 24 10       	mov    0x10(%rsp),%r8
  402ef5:	49 8b 34 24          	mov    (%r12),%rsi
  402ef9:	49 8b 38             	mov    (%r8),%rdi
  402efc:	e8 5f eb ff ff       	callq  401a60 <strncmp@plt>
  402f01:	85 c0                	test   %eax,%eax
  402f03:	75 1d                	jne    402f22 <error+0xfa3>
  402f05:	8b 74 24 08          	mov    0x8(%rsp),%esi
  402f09:	44 89 f7             	mov    %r14d,%edi
  402f0c:	e8 1f 97 00 00       	callq  40c630 <error+0xa6b1>
  402f11:	85 c0                	test   %eax,%eax
  402f13:	74 0d                	je     402f22 <error+0xfa3>
  402f15:	4c 8b 4c 24 10       	mov    0x10(%rsp),%r9
  402f1a:	4c 8b 6c 24 08       	mov    0x8(%rsp),%r13
  402f1f:	4d 03 29             	add    (%r9),%r13
  402f22:	41 83 c6 01          	add    $0x1,%r14d
  402f26:	49 83 c7 18          	add    $0x18,%r15
  402f2a:	44 3b 35 07 d5 23 00 	cmp    0x23d507(%rip),%r14d        # 640438 <stdout+0x318>
  402f31:	7c a9                	jl     402edc <error+0xf5d>
  402f33:	83 c8 ff             	or     $0xffffffffffffffff,%eax
  402f36:	4d 85 ed             	test   %r13,%r13
  402f39:	41 89 c4             	mov    %eax,%r12d
  402f3c:	74 23                	je     402f61 <error+0xfe2>
  402f3e:	48 8b 73 08          	mov    0x8(%rbx),%rsi
  402f42:	4c 89 ef             	mov    %r13,%rdi
  402f45:	e8 3f fe ff ff       	callq  402d89 <error+0xe0a>
  402f4a:	41 89 c4             	mov    %eax,%r12d
  402f4d:	83 c8 ff             	or     $0xffffffffffffffff,%eax
  402f50:	83 fd 02             	cmp    $0x2,%ebp
  402f53:	75 0c                	jne    402f61 <error+0xfe2>
  402f55:	48 8b 73 10          	mov    0x10(%rbx),%rsi
  402f59:	4c 89 ef             	mov    %r13,%rdi
  402f5c:	e8 28 fe ff ff       	callq  402d89 <error+0xe0a>
  402f61:	48 8b 33             	mov    (%rbx),%rsi
  402f64:	0f be 2e             	movsbl (%rsi),%ebp
  402f67:	0f be 4e 01          	movsbl 0x1(%rsi),%ecx
  402f6b:	c1 e5 08             	shl    $0x8,%ebp
  402f6e:	09 e9                	or     %ebp,%ecx
  402f70:	81 f9 00 3c 00 00    	cmp    $0x3c00,%ecx
  402f76:	74 60                	je     402fd8 <error+0x1059>
  402f78:	7f 12                	jg     402f8c <error+0x100d>
  402f7a:	81 f9 3c 21 00 00    	cmp    $0x213c,%ecx
  402f80:	74 2f                	je     402fb1 <error+0x1032>
  402f82:	81 f9 3e 21 00 00    	cmp    $0x213e,%ecx
  402f88:	75 62                	jne    402fec <error+0x106d>
  402f8a:	eb 37                	jmp    402fc3 <error+0x1044>
  402f8c:	81 f9 3c 3e 00 00    	cmp    $0x3e3c,%ecx
  402f92:	74 3e                	je     402fd2 <error+0x1053>
  402f94:	81 f9 3d 3e 00 00    	cmp    $0x3e3d,%ecx
  402f9a:	74 0a                	je     402fa6 <error+0x1027>
  402f9c:	81 f9 3e 3c 00 00    	cmp    $0x3c3e,%ecx
  402fa2:	75 48                	jne    402fec <error+0x106d>
  402fa4:	eb 3a                	jmp    402fe0 <error+0x1061>
  402fa6:	41 f7 d4             	not    %r12d
  402fa9:	44 89 e2             	mov    %r12d,%edx
  402fac:	c1 ea 1f             	shr    $0x1f,%edx
  402faf:	eb 47                	jmp    402ff8 <error+0x1079>
  402fb1:	41 f7 d4             	not    %r12d
  402fb4:	41 c1 ec 1f          	shr    $0x1f,%r12d
  402fb8:	4d 85 ed             	test   %r13,%r13
  402fbb:	0f 94 c2             	sete   %dl
  402fbe:	44 09 e2             	or     %r12d,%edx
  402fc1:	eb 35                	jmp    402ff8 <error+0x1079>
  402fc3:	41 c1 ec 1f          	shr    $0x1f,%r12d
  402fc7:	4d 85 ed             	test   %r13,%r13
  402fca:	0f 94 c2             	sete   %dl
  402fcd:	44 09 e2             	or     %r12d,%edx
  402fd0:	eb 26                	jmp    402ff8 <error+0x1079>
  402fd2:	41 f7 d4             	not    %r12d
  402fd5:	41 21 c4             	and    %eax,%r12d
  402fd8:	44 89 e2             	mov    %r12d,%edx
  402fdb:	c1 ea 1f             	shr    $0x1f,%edx
  402fde:	eb 18                	jmp    402ff8 <error+0x1079>
  402fe0:	89 c2                	mov    %eax,%edx
  402fe2:	f7 d2                	not    %edx
  402fe4:	44 09 e2             	or     %r12d,%edx
  402fe7:	c1 ea 1f             	shr    $0x1f,%edx
  402fea:	eb 0c                	jmp    402ff8 <error+0x1079>
  402fec:	bf f0 e3 41 00       	mov    $0x41e3f0,%edi
  402ff1:	31 c0                	xor    %eax,%eax
  402ff3:	e8 06 f1 ff ff       	callq  4020fe <error+0x17f>
  402ff8:	31 c0                	xor    %eax,%eax
  402ffa:	84 d2                	test   %dl,%dl
  402ffc:	74 0a                	je     403008 <error+0x1089>
  402ffe:	4c 8b 54 24 18       	mov    0x18(%rsp),%r10
  403003:	4a 8b 44 d3 10       	mov    0x10(%rbx,%r10,8),%rax
  403008:	48 83 c4 28          	add    $0x28,%rsp
  40300c:	5b                   	pop    %rbx
  40300d:	5d                   	pop    %rbp
  40300e:	41 5c                	pop    %r12
  403010:	41 5d                	pop    %r13
  403012:	41 5e                	pop    %r14
  403014:	41 5f                	pop    %r15
  403016:	c3                   	retq   
  403017:	55                   	push   %rbp
  403018:	31 f6                	xor    %esi,%esi
  40301a:	53                   	push   %rbx
  40301b:	89 fb                	mov    %edi,%ebx
  40301d:	48 83 ec 08          	sub    $0x8,%rsp
  403021:	e8 6a ec ff ff       	callq  401c90 <signal@plt>
  403026:	48 8b 2d fb d3 23 00 	mov    0x23d3fb(%rip),%rbp        # 640428 <stdout+0x308>
  40302d:	eb 0d                	jmp    40303c <error+0x10bd>
  40302f:	48 8b 7d 00          	mov    0x0(%rbp),%rdi
  403033:	e8 49 f0 ff ff       	callq  402081 <error+0x102>
  403038:	48 8b 6d 08          	mov    0x8(%rbp),%rbp
  40303c:	48 85 ed             	test   %rbp,%rbp
  40303f:	75 ee                	jne    40302f <error+0x10b0>
  403041:	e8 90 f0 ff ff       	callq  4020d6 <error+0x157>
  403046:	e8 b5 ea ff ff       	callq  401b00 <getpid@plt>
  40304b:	48 83 c4 08          	add    $0x8,%rsp
  40304f:	89 de                	mov    %ebx,%esi
  403051:	89 c7                	mov    %eax,%edi
  403053:	5b                   	pop    %rbx
  403054:	5d                   	pop    %rbp
  403055:	e9 c6 eb ff ff       	jmpq   401c20 <kill@plt>
  40305a:	55                   	push   %rbp
  40305b:	48 89 f1             	mov    %rsi,%rcx
  40305e:	49 89 f9             	mov    %rdi,%r9
  403061:	48 89 fe             	mov    %rdi,%rsi
  403064:	31 c0                	xor    %eax,%eax
  403066:	41 b8 80 e4 41 00    	mov    $0x41e480,%r8d
  40306c:	53                   	push   %rbx
  40306d:	ba 81 c6 43 00       	mov    $0x43c681,%edx
  403072:	48 83 ec 48          	sub    $0x48,%rsp
  403076:	48 89 7c 24 28       	mov    %rdi,0x28(%rsp)
  40307b:	bf f5 ce 41 00       	mov    $0x41cef5,%edi
  403080:	48 c7 44 24 38 00 00 	movq   $0x0,0x38(%rsp)
  403087:	00 00 
  403089:	48 c7 44 24 30 0d cf 	movq   $0x41cf0d,0x30(%rsp)
  403090:	41 00 
  403092:	48 c7 44 24 20 12 cf 	movq   $0x41cf12,0x20(%rsp)
  403099:	41 00 
  40309b:	48 c7 44 24 18 1e cf 	movq   $0x41cf1e,0x18(%rsp)
  4030a2:	41 00 
  4030a4:	48 c7 44 24 10 b0 e4 	movq   $0x41e4b0,0x10(%rsp)
  4030ab:	41 00 
  4030ad:	48 c7 44 24 08 1e cf 	movq   $0x41cf1e,0x8(%rsp)
  4030b4:	41 00 
  4030b6:	48 c7 04 24 26 cf 41 	movq   $0x41cf26,(%rsp)
  4030bd:	00 
  4030be:	e8 8d 86 01 00       	callq  41b750 <error+0x197d1>
  4030c3:	48 89 c3             	mov    %rax,%rbx
  4030c6:	48 83 c9 ff          	or     $0xffffffffffffffff,%rcx
  4030ca:	31 c0                	xor    %eax,%eax
  4030cc:	48 89 df             	mov    %rbx,%rdi
  4030cf:	f2 ae                	repnz scas %es:(%rdi),%al
  4030d1:	48 8b 05 60 d1 23 00 	mov    0x23d160(%rip),%rax        # 640238 <stdout+0x118>
  4030d8:	48 f7 d1             	not    %rcx
  4030db:	48 83 e9 01          	sub    $0x1,%rcx
  4030df:	48 63 e9             	movslq %ecx,%rbp
  4030e2:	48 01 e8             	add    %rbp,%rax
  4030e5:	48 39 05 54 d1 23 00 	cmp    %rax,0x23d154(%rip)        # 640240 <stdout+0x120>
  4030ec:	73 0c                	jae    4030fa <error+0x117b>
  4030ee:	89 ce                	mov    %ecx,%esi
  4030f0:	bf 20 02 64 00       	mov    $0x640220,%edi
  4030f5:	e8 d6 e9 ff ff       	callq  401ad0 <_obstack_newchunk@plt>
  4030fa:	48 8b 15 37 d1 23 00 	mov    0x23d137(%rip),%rdx        # 640238 <stdout+0x118>
  403101:	48 89 de             	mov    %rbx,%rsi
  403104:	48 89 e9             	mov    %rbp,%rcx
  403107:	48 89 d7             	mov    %rdx,%rdi
  40310a:	f3 a4                	rep movsb %ds:(%rsi),%es:(%rdi)
  40310c:	48 89 df             	mov    %rbx,%rdi
  40310f:	48 01 2d 22 d1 23 00 	add    %rbp,0x23d122(%rip)        # 640238 <stdout+0x118>
  403116:	48 83 c4 48          	add    $0x48,%rsp
  40311a:	5b                   	pop    %rbx
  40311b:	5d                   	pop    %rbp
  40311c:	e9 1f ea ff ff       	jmpq   401b40 <free@plt>
  403121:	48 83 3d 6f d0 23 00 	cmpq   $0x0,0x23d06f(%rip)        # 640198 <stdout+0x78>
  403128:	00 
  403129:	53                   	push   %rbx
  40312a:	0f 85 f4 02 00 00    	jne    403424 <error+0x14a5>
  403130:	83 3d bd d0 23 00 00 	cmpl   $0x0,0x23d0bd(%rip)        # 6401f4 <stdout+0xd4>
  403137:	74 0c                	je     403145 <error+0x11c6>
  403139:	bf 34 cf 41 00       	mov    $0x41cf34,%edi
  40313e:	31 c0                	xor    %eax,%eax
  403140:	e8 8b ed ff ff       	callq  401ed0 <vfork@plt+0x10>
  403145:	bf 01 00 00 00       	mov    $0x1,%edi
  40314a:	be 28 00 00 00       	mov    $0x28,%esi
  40314f:	e8 cc 99 01 00       	callq  41cb20 <error+0x1aba1>
  403154:	48 8b 3d a5 22 02 00 	mov    0x222a5(%rip),%rdi        # 425400 <error+0x23481>
  40315b:	48 8b 1d a6 22 02 00 	mov    0x222a6(%rip),%rbx        # 425408 <error+0x23489>
  403162:	48 89 c2             	mov    %rax,%rdx
  403165:	48 89 05 34 d0 23 00 	mov    %rax,0x23d034(%rip)        # 6401a0 <stdout+0x80>
  40316c:	48 83 c9 ff          	or     $0xffffffffffffffff,%rcx
  403170:	48 c7 40 18 00 00 00 	movq   $0x0,0x18(%rax)
  403177:	00 
  403178:	48 89 38             	mov    %rdi,(%rax)
  40317b:	48 89 58 08          	mov    %rbx,0x8(%rax)
  40317f:	31 c0                	xor    %eax,%eax
  403181:	f2 ae                	repnz scas %es:(%rdi),%al
  403183:	48 8d 42 08          	lea    0x8(%rdx),%rax
  403187:	48 f7 d1             	not    %rcx
  40318a:	48 83 e9 01          	sub    $0x1,%rcx
  40318e:	48 89 42 10          	mov    %rax,0x10(%rdx)
  403192:	b8 60 fe 63 00       	mov    $0x63fe60,%eax
  403197:	89 4a 20             	mov    %ecx,0x20(%rdx)
  40319a:	48 89 c6             	mov    %rax,%rsi
  40319d:	48 89 50 18          	mov    %rdx,0x18(%rax)
  4031a1:	48 83 e8 28          	sub    $0x28,%rax
  4031a5:	48 3d f8 f7 63 00    	cmp    $0x63f7f8,%rax
  4031ab:	48 89 f2             	mov    %rsi,%rdx
  4031ae:	75 ea                	jne    40319a <error+0x121b>
  4031b0:	48 8b 1d d1 cc 23 00 	mov    0x23ccd1(%rip),%rbx        # 63fe88 <error+0x23df09>
  4031b7:	ba 01 00 00 00       	mov    $0x1,%edx
  4031bc:	e9 ad 00 00 00       	jmpq   40326e <error+0x12ef>
  4031c1:	85 d2                	test   %edx,%edx
  4031c3:	74 62                	je     403227 <error+0x12a8>
  4031c5:	3c 2d                	cmp    $0x2d,%al
  4031c7:	75 2d                	jne    4031f6 <error+0x1277>
  4031c9:	ba 05 00 00 00       	mov    $0x5,%edx
  4031ce:	be 4b cf 41 00       	mov    $0x41cf4b,%esi
  4031d3:	48 89 df             	mov    %rbx,%rdi
  4031d6:	e8 85 e8 ff ff       	callq  401a60 <strncmp@plt>
  4031db:	85 c0                	test   %eax,%eax
  4031dd:	75 48                	jne    403227 <error+0x12a8>
  4031df:	be 51 cf 41 00       	mov    $0x41cf51,%esi
  4031e4:	bf 4b cf 41 00       	mov    $0x41cf4b,%edi
  4031e9:	48 83 c3 05          	add    $0x5,%rbx
  4031ed:	e8 68 fe ff ff       	callq  40305a <error+0x10db>
  4031f2:	31 d2                	xor    %edx,%edx
  4031f4:	eb 78                	jmp    40326e <error+0x12ef>
  4031f6:	3c 6c                	cmp    $0x6c,%al
  4031f8:	75 2d                	jne    403227 <error+0x12a8>
  4031fa:	ba 0a 00 00 00       	mov    $0xa,%edx
  4031ff:	be 5a cf 41 00       	mov    $0x41cf5a,%esi
  403204:	48 89 df             	mov    %rbx,%rdi
  403207:	e8 54 e8 ff ff       	callq  401a60 <strncmp@plt>
  40320c:	85 c0                	test   %eax,%eax
  40320e:	75 17                	jne    403227 <error+0x12a8>
  403210:	be 65 cf 41 00       	mov    $0x41cf65,%esi
  403215:	bf 5a cf 41 00       	mov    $0x41cf5a,%edi
  40321a:	48 83 c3 0a          	add    $0xa,%rbx
  40321e:	e8 37 fe ff ff       	callq  40305a <error+0x10db>
  403223:	31 d2                	xor    %edx,%edx
  403225:	eb 47                	jmp    40326e <error+0x12ef>
  403227:	48 8b 15 0a d0 23 00 	mov    0x23d00a(%rip),%rdx        # 640238 <stdout+0x118>
  40322e:	48 83 c2 01          	add    $0x1,%rdx
  403232:	48 39 15 07 d0 23 00 	cmp    %rdx,0x23d007(%rip)        # 640240 <stdout+0x120>
  403239:	73 0f                	jae    40324a <error+0x12cb>
  40323b:	be 01 00 00 00       	mov    $0x1,%esi
  403240:	bf 20 02 64 00       	mov    $0x640220,%edi
  403245:	e8 86 e8 ff ff       	callq  401ad0 <_obstack_newchunk@plt>
  40324a:	4c 8b 05 e7 cf 23 00 	mov    0x23cfe7(%rip),%r8        # 640238 <stdout+0x118>
  403251:	44 8a 0b             	mov    (%rbx),%r9b
  403254:	31 d2                	xor    %edx,%edx
  403256:	45 88 08             	mov    %r9b,(%r8)
  403259:	49 83 c0 01          	add    $0x1,%r8
  40325d:	4c 89 05 d4 cf 23 00 	mov    %r8,0x23cfd4(%rip)        # 640238 <stdout+0x118>
  403264:	80 3b 20             	cmpb   $0x20,(%rbx)
  403267:	0f 94 c2             	sete   %dl
  40326a:	48 83 c3 01          	add    $0x1,%rbx
  40326e:	8a 03                	mov    (%rbx),%al
  403270:	84 c0                	test   %al,%al
  403272:	0f 85 49 ff ff ff    	jne    4031c1 <error+0x1242>
  403278:	4c 8b 15 b9 cf 23 00 	mov    0x23cfb9(%rip),%r10        # 640238 <stdout+0x118>
  40327f:	49 83 c2 01          	add    $0x1,%r10
  403283:	4c 39 15 b6 cf 23 00 	cmp    %r10,0x23cfb6(%rip)        # 640240 <stdout+0x120>
  40328a:	73 0f                	jae    40329b <error+0x131c>
  40328c:	be 01 00 00 00       	mov    $0x1,%esi
  403291:	bf 20 02 64 00       	mov    $0x640220,%edi
  403296:	e8 35 e8 ff ff       	callq  401ad0 <_obstack_newchunk@plt>
  40329b:	4c 8b 1d 96 cf 23 00 	mov    0x23cf96(%rip),%r11        # 640238 <stdout+0x118>
  4032a2:	41 c6 03 00          	movb   $0x0,(%r11)
  4032a6:	48 8b 0d 83 cf 23 00 	mov    0x23cf83(%rip),%rcx        # 640230 <stdout+0x110>
  4032ad:	49 83 c3 01          	add    $0x1,%r11
  4032b1:	4c 89 1d 80 cf 23 00 	mov    %r11,0x23cf80(%rip)        # 640238 <stdout+0x118>
  4032b8:	49 39 cb             	cmp    %rcx,%r11
  4032bb:	75 07                	jne    4032c4 <error+0x1345>
  4032bd:	80 0d ac cf 23 00 02 	orb    $0x2,0x23cfac(%rip)        # 640270 <stdout+0x150>
  4032c4:	4c 63 0d 85 cf 23 00 	movslq 0x23cf85(%rip),%r9        # 640250 <stdout+0x130>
  4032cb:	48 8b 15 6e cf 23 00 	mov    0x23cf6e(%rip),%rdx        # 640240 <stdout+0x120>
  4032d2:	4c 8b 05 4f cf 23 00 	mov    0x23cf4f(%rip),%r8        # 640228 <stdout+0x108>
  4032d9:	48 89 0d a8 cb 23 00 	mov    %rcx,0x23cba8(%rip)        # 63fe88 <error+0x23df09>
  4032e0:	48 89 d7             	mov    %rdx,%rdi
  4032e3:	44 89 c8             	mov    %r9d,%eax
  4032e6:	4c 03 0d 4b cf 23 00 	add    0x23cf4b(%rip),%r9        # 640238 <stdout+0x118>
  4032ed:	4c 29 c7             	sub    %r8,%rdi
  4032f0:	f7 d0                	not    %eax
  4032f2:	48 98                	cltq   
  4032f4:	4c 21 c8             	and    %r9,%rax
  4032f7:	48 89 c6             	mov    %rax,%rsi
  4032fa:	4c 29 c6             	sub    %r8,%rsi
  4032fd:	48 39 fe             	cmp    %rdi,%rsi
  403300:	48 0f 4f c2          	cmovg  %rdx,%rax
  403304:	48 89 05 2d cf 23 00 	mov    %rax,0x23cf2d(%rip)        # 640238 <stdout+0x118>
  40330b:	48 89 05 1e cf 23 00 	mov    %rax,0x23cf1e(%rip)        # 640230 <stdout+0x110>
  403312:	48 83 c0 2b          	add    $0x2b,%rax
  403316:	48 39 c2             	cmp    %rax,%rdx
  403319:	73 0f                	jae    40332a <error+0x13ab>
  40331b:	be 2b 00 00 00       	mov    $0x2b,%esi
  403320:	bf 20 02 64 00       	mov    $0x640220,%edi
  403325:	e8 a6 e7 ff ff       	callq  401ad0 <_obstack_newchunk@plt>
  40332a:	48 8b 15 07 cf 23 00 	mov    0x23cf07(%rip),%rdx        # 640238 <stdout+0x118>
  403331:	be d8 e4 41 00       	mov    $0x41e4d8,%esi
  403336:	b9 2b 00 00 00       	mov    $0x2b,%ecx
  40333b:	31 c0                	xor    %eax,%eax
  40333d:	48 89 d7             	mov    %rdx,%rdi
  403340:	f3 a4                	rep movsb %ds:(%rsi),%es:(%rdi)
  403342:	48 83 c9 ff          	or     $0xffffffffffffffff,%rcx
  403346:	4c 8b 1d eb ce 23 00 	mov    0x23ceeb(%rip),%r11        # 640238 <stdout+0x118>
  40334d:	48 8b 3d 5c c4 23 00 	mov    0x23c45c(%rip),%rdi        # 63f7b0 <error+0x23d831>
  403354:	49 83 c3 2b          	add    $0x2b,%r11
  403358:	4c 89 1d d9 ce 23 00 	mov    %r11,0x23ced9(%rip)        # 640238 <stdout+0x118>
  40335f:	f2 ae                	repnz scas %es:(%rdi),%al
  403361:	48 f7 d1             	not    %rcx
  403364:	83 e9 01             	sub    $0x1,%ecx
  403367:	48 63 d9             	movslq %ecx,%rbx
  40336a:	4d 8d 54 1b 01       	lea    0x1(%r11,%rbx,1),%r10
  40336f:	4c 39 15 ca ce 23 00 	cmp    %r10,0x23ceca(%rip)        # 640240 <stdout+0x120>
  403376:	73 0d                	jae    403385 <error+0x1406>
  403378:	8d 71 01             	lea    0x1(%rcx),%esi
  40337b:	bf 20 02 64 00       	mov    $0x640220,%edi
  403380:	e8 4b e7 ff ff       	callq  401ad0 <_obstack_newchunk@plt>
  403385:	4c 8b 05 ac ce 23 00 	mov    0x23ceac(%rip),%r8        # 640238 <stdout+0x118>
  40338c:	48 8b 35 1d c4 23 00 	mov    0x23c41d(%rip),%rsi        # 63f7b0 <error+0x23d831>
  403393:	48 89 d9             	mov    %rbx,%rcx
  403396:	4c 89 c7             	mov    %r8,%rdi
  403399:	f3 a4                	rep movsb %ds:(%rsi),%es:(%rdi)
  40339b:	48 03 1d 96 ce 23 00 	add    0x23ce96(%rip),%rbx        # 640238 <stdout+0x118>
  4033a2:	c6 03 00             	movb   $0x0,(%rbx)
  4033a5:	48 8b 0d 84 ce 23 00 	mov    0x23ce84(%rip),%rcx        # 640230 <stdout+0x110>
  4033ac:	48 83 c3 01          	add    $0x1,%rbx
  4033b0:	48 89 1d 81 ce 23 00 	mov    %rbx,0x23ce81(%rip)        # 640238 <stdout+0x118>
  4033b7:	48 39 cb             	cmp    %rcx,%rbx
  4033ba:	75 07                	jne    4033c3 <error+0x1444>
  4033bc:	80 0d ad ce 23 00 02 	orb    $0x2,0x23cead(%rip)        # 640270 <stdout+0x150>
  4033c3:	48 63 1d 86 ce 23 00 	movslq 0x23ce86(%rip),%rbx        # 640250 <stdout+0x130>
  4033ca:	4c 8b 1d 57 ce 23 00 	mov    0x23ce57(%rip),%r11        # 640228 <stdout+0x108>
  4033d1:	89 d8                	mov    %ebx,%eax
  4033d3:	48 03 1d 5e ce 23 00 	add    0x23ce5e(%rip),%rbx        # 640238 <stdout+0x118>
  4033da:	f7 d0                	not    %eax
  4033dc:	48 98                	cltq   
  4033de:	48 21 d8             	and    %rbx,%rax
  4033e1:	48 8b 1d 58 ce 23 00 	mov    0x23ce58(%rip),%rbx        # 640240 <stdout+0x120>
  4033e8:	48 89 05 49 ce 23 00 	mov    %rax,0x23ce49(%rip)        # 640238 <stdout+0x118>
  4033ef:	4c 29 d8             	sub    %r11,%rax
  4033f2:	49 89 da             	mov    %rbx,%r10
  4033f5:	4d 29 da             	sub    %r11,%r10
  4033f8:	4c 39 d0             	cmp    %r10,%rax
  4033fb:	7e 07                	jle    403404 <error+0x1485>
  4033fd:	48 89 1d 34 ce 23 00 	mov    %rbx,0x23ce34(%rip)        # 640238 <stdout+0x118>
  403404:	48 8b 15 2d ce 23 00 	mov    0x23ce2d(%rip),%rdx        # 640238 <stdout+0x118>
  40340b:	48 89 0d 9e c3 23 00 	mov    %rcx,0x23c39e(%rip)        # 63f7b0 <error+0x23d831>
  403412:	48 c7 05 7b cd 23 00 	movq   $0x63f820,0x23cd7b(%rip)        # 640198 <stdout+0x78>
  403419:	20 f8 63 00 
  40341d:	48 89 15 0c ce 23 00 	mov    %rdx,0x23ce0c(%rip)        # 640230 <stdout+0x110>
  403424:	5b                   	pop    %rbx
  403425:	c3                   	retq   
  403426:	83 ff 01             	cmp    $0x1,%edi
  403429:	53                   	push   %rbx
  40342a:	48 89 f3             	mov    %rsi,%rbx
  40342d:	74 1b                	je     40344a <error+0x14cb>
  40342f:	b9 1b 22 00 00       	mov    $0x221b,%ecx
  403434:	ba f4 cd 41 00       	mov    $0x41cdf4,%edx
  403439:	be 70 55 42 00       	mov    $0x425570,%esi
  40343e:	bf 78 e1 41 00       	mov    $0x41e178,%edi
  403443:	31 c0                	xor    %eax,%eax
  403445:	e8 98 ed ff ff       	callq  4021e2 <error+0x263>
  40344a:	48 8b 36             	mov    (%rsi),%rsi
  40344d:	b9 01 00 00 00       	mov    $0x1,%ecx
  403452:	ba 04 00 00 00       	mov    $0x4,%edx
  403457:	bf 60 f7 63 00       	mov    $0x63f760,%edi
  40345c:	e8 2f 91 00 00       	callq  40c590 <error+0xa611>
  403461:	48 85 c0             	test   %rax,%rax
  403464:	75 03                	jne    403469 <error+0x14ea>
  403466:	48 8b 03             	mov    (%rbx),%rax
  403469:	48 89 c7             	mov    %rax,%rdi
  40346c:	31 f6                	xor    %esi,%esi
  40346e:	e8 1d b7 00 00       	callq  40eb90 <error+0xcc11>
  403473:	31 c0                	xor    %eax,%eax
  403475:	5b                   	pop    %rbx
  403476:	c3                   	retq   
  403477:	48 83 ec 08          	sub    $0x8,%rsp
  40347b:	85 ff                	test   %edi,%edi
  40347d:	74 0c                	je     40348b <error+0x150c>
  40347f:	bf f8 e7 41 00       	mov    $0x41e7f8,%edi
  403484:	31 c0                	xor    %eax,%eax
  403486:	e8 73 ec ff ff       	callq  4020fe <error+0x17f>
  40348b:	83 3d 3e d3 23 00 00 	cmpl   $0x0,0x23d33e(%rip)        # 6407d0 <stdout+0x6b0>
  403492:	78 07                	js     40349b <error+0x151c>
  403494:	31 c0                	xor    %eax,%eax
  403496:	48 83 c4 08          	add    $0x8,%rsp
  40349a:	c3                   	retq   
  40349b:	bf db d0 41 00       	mov    $0x41d0db,%edi
  4034a0:	e8 4b e2 00 00       	callq  4116f0 <error+0xf771>
  4034a5:	31 d2                	xor    %edx,%edx
  4034a7:	31 f6                	xor    %esi,%esi
  4034a9:	bf 81 c6 43 00       	mov    $0x43c681,%edi
  4034ae:	e8 1d c5 00 00       	callq  40f9d0 <error+0xda51>
  4034b3:	8b 05 3b cf 23 00    	mov    0x23cf3b(%rip),%eax        # 6403f4 <stdout+0x2d4>
  4034b9:	85 c0                	test   %eax,%eax
  4034bb:	7e 25                	jle    4034e2 <error+0x1563>
  4034bd:	48 8b 15 24 cf 23 00 	mov    0x23cf24(%rip),%rdx        # 6403e8 <stdout+0x2c8>
  4034c4:	48 98                	cltq   
  4034c6:	bf eb d0 41 00       	mov    $0x41d0eb,%edi
  4034cb:	48 8b 74 c2 f8       	mov    -0x8(%rdx,%rax,8),%rsi
  4034d0:	31 d2                	xor    %edx,%edx
  4034d2:	31 c0                	xor    %eax,%eax
  4034d4:	e8 77 82 01 00       	callq  41b750 <error+0x197d1>
  4034d9:	48 89 05 b0 d0 23 00 	mov    %rax,0x23d0b0(%rip)        # 640590 <stdout+0x470>
  4034e0:	eb 0b                	jmp    4034ed <error+0x156e>
  4034e2:	48 c7 05 a3 d0 23 00 	movq   $0x0,0x23d0a3(%rip)        # 640590 <stdout+0x470>
  4034e9:	00 00 00 00 
  4034ed:	48 8b 35 04 d3 23 00 	mov    0x23d304(%rip),%rsi        # 6407f8 <stdout+0x6d8>
  4034f4:	31 d2                	xor    %edx,%edx
  4034f6:	bf 28 e8 41 00       	mov    $0x41e828,%edi
  4034fb:	31 c0                	xor    %eax,%eax
  4034fd:	48 83 c4 08          	add    $0x8,%rsp
  403501:	e9 4a 82 01 00       	jmpq   41b750 <error+0x197d1>
  403506:	41 54                	push   %r12
  403508:	55                   	push   %rbp
  403509:	53                   	push   %rbx
  40350a:	48 89 f3             	mov    %rsi,%rbx
  40350d:	48 83 ec 10          	sub    $0x10,%rsp
  403511:	85 ff                	test   %edi,%edi
  403513:	74 0c                	je     403521 <error+0x15a2>
  403515:	bf a8 e8 41 00       	mov    $0x41e8a8,%edi
  40351a:	31 c0                	xor    %eax,%eax
  40351c:	e8 dd eb ff ff       	callq  4020fe <error+0x17f>
  403521:	bf fb d0 41 00       	mov    $0x41d0fb,%edi
  403526:	e8 c5 e1 00 00       	callq  4116f0 <error+0xf771>
  40352b:	31 d2                	xor    %edx,%edx
  40352d:	31 f6                	xor    %esi,%esi
  40352f:	bf 81 c6 43 00       	mov    $0x43c681,%edi
  403534:	e8 97 c4 00 00       	callq  40f9d0 <error+0xda51>
  403539:	8b 05 b5 ce 23 00    	mov    0x23ceb5(%rip),%eax        # 6403f4 <stdout+0x2d4>
  40353f:	85 c0                	test   %eax,%eax
  403541:	7e 48                	jle    40358b <error+0x160c>
  403543:	48 98                	cltq   
  403545:	be 3b 72 42 00       	mov    $0x42723b,%esi
  40354a:	48 8b 5c c3 f8       	mov    -0x8(%rbx,%rax,8),%rbx
  40354f:	48 89 df             	mov    %rbx,%rdi
  403552:	e8 f9 e7 ff ff       	callq  401d50 <strcmp@plt>
  403557:	85 c0                	test   %eax,%eax
  403559:	74 1f                	je     40357a <error+0x15fb>
  40355b:	83 3d 6e d2 23 00 00 	cmpl   $0x0,0x23d26e(%rip)        # 6407d0 <stdout+0x6b0>
  403562:	0f 84 2c 01 00 00    	je     403694 <error+0x1715>
  403568:	48 89 df             	mov    %rbx,%rdi
  40356b:	31 ed                	xor    %ebp,%ebp
  40356d:	e8 8e 96 01 00       	callq  41cc00 <error+0x1ac81>
  403572:	49 89 c4             	mov    %rax,%r12
  403575:	e9 8e 00 00 00       	jmpq   403608 <error+0x1689>
  40357a:	bf d8 e8 41 00       	mov    $0x41e8d8,%edi
  40357f:	bb 17 d1 41 00       	mov    $0x41d117,%ebx
  403584:	e8 67 e1 00 00       	callq  4116f0 <error+0xf771>
  403589:	eb 19                	jmp    4035a4 <error+0x1625>
  40358b:	83 3d 3e d2 23 00 00 	cmpl   $0x0,0x23d23e(%rip)        # 6407d0 <stdout+0x6b0>
  403592:	0f 84 fc 00 00 00    	je     403694 <error+0x1715>
  403598:	bf 15 d1 41 00       	mov    $0x41d115,%edi
  40359d:	31 db                	xor    %ebx,%ebx
  40359f:	e8 4c e1 00 00       	callq  4116f0 <error+0xf771>
  4035a4:	31 d2                	xor    %edx,%edx
  4035a6:	31 f6                	xor    %esi,%esi
  4035a8:	bf 81 c6 43 00       	mov    $0x43c681,%edi
  4035ad:	e8 1e c4 00 00       	callq  40f9d0 <error+0xda51>
  4035b2:	8b 05 3c ce 23 00    	mov    0x23ce3c(%rip),%eax        # 6403f4 <stdout+0x2d4>
  4035b8:	85 c0                	test   %eax,%eax
  4035ba:	7f 1b                	jg     4035d7 <error+0x1658>
  4035bc:	b9 76 22 00 00       	mov    $0x2276,%ecx
  4035c1:	ba f4 cd 41 00       	mov    $0x41cdf4,%edx
  4035c6:	be 40 55 42 00       	mov    $0x425540,%esi
  4035cb:	bf 78 e1 41 00       	mov    $0x41e178,%edi
  4035d0:	31 c0                	xor    %eax,%eax
  4035d2:	e8 0b ec ff ff       	callq  4021e2 <error+0x263>
  4035d7:	48 8b 15 0a ce 23 00 	mov    0x23ce0a(%rip),%rdx        # 6403e8 <stdout+0x2c8>
  4035de:	48 98                	cltq   
  4035e0:	48 89 de             	mov    %rbx,%rsi
  4035e3:	48 8b 7c c2 f8       	mov    -0x8(%rdx,%rax,8),%rdi
  4035e8:	31 d2                	xor    %edx,%edx
  4035ea:	31 c0                	xor    %eax,%eax
  4035ec:	e8 5f 81 01 00       	callq  41b750 <error+0x197d1>
  4035f1:	31 d2                	xor    %edx,%edx
  4035f3:	48 89 c6             	mov    %rax,%rsi
  4035f6:	49 89 c4             	mov    %rax,%r12
  4035f9:	bf 1c d1 41 00       	mov    $0x41d11c,%edi
  4035fe:	31 c0                	xor    %eax,%eax
  403600:	e8 4b 81 01 00       	callq  41b750 <error+0x197d1>
  403605:	48 89 c5             	mov    %rax,%rbp
  403608:	8b 1d c2 d1 23 00    	mov    0x23d1c2(%rip),%ebx        # 6407d0 <stdout+0x6b0>
  40360e:	c1 eb 1f             	shr    $0x1f,%ebx
  403611:	48 63 c3             	movslq %ebx,%rax
  403614:	85 db                	test   %ebx,%ebx
  403616:	4c 89 24 c5 60 04 64 	mov    %r12,0x640460(,%rax,8)
  40361d:	00 
  40361e:	75 3f                	jne    40365f <error+0x16e0>
  403620:	48 89 e7             	mov    %rsp,%rdi
  403623:	31 f6                	xor    %esi,%esi
  403625:	e8 06 e4 ff ff       	callq  401a30 <gettimeofday@plt>
  40362a:	48 8b 44 24 08       	mov    0x8(%rsp),%rax
  40362f:	b9 e8 03 00 00       	mov    $0x3e8,%ecx
  403634:	44 69 24 24 e8 03 00 	imul   $0x3e8,(%rsp),%r12d
  40363b:	00 
  40363c:	48 99                	cqto   
  40363e:	48 f7 f9             	idiv   %rcx
  403641:	41 01 c4             	add    %eax,%r12d
  403644:	e8 b7 e4 ff ff       	callq  401b00 <getpid@plt>
  403649:	89 c2                	mov    %eax,%edx
  40364b:	be 30 d1 41 00       	mov    $0x41d130,%esi
  403650:	bf b0 01 64 00       	mov    $0x6401b0,%edi
  403655:	44 31 e2             	xor    %r12d,%edx
  403658:	31 c0                	xor    %eax,%eax
  40365a:	e8 61 e5 ff ff       	callq  401bc0 <sprintf@plt>
  40365f:	80 3d 4a cb 23 00 00 	cmpb   $0x0,0x23cb4a(%rip)        # 6401b0 <stdout+0x90>
  403666:	74 1f                	je     403687 <error+0x1708>
  403668:	48 89 e9             	mov    %rbp,%rcx
  40366b:	45 31 c0             	xor    %r8d,%r8d
  40366e:	ba 36 d1 41 00       	mov    $0x41d136,%edx
  403673:	be b0 01 64 00       	mov    $0x6401b0,%esi
  403678:	bf 00 e9 41 00       	mov    $0x41e900,%edi
  40367d:	31 c0                	xor    %eax,%eax
  40367f:	e8 cc 80 01 00       	callq  41b750 <error+0x197d1>
  403684:	48 89 c5             	mov    %rax,%rbp
  403687:	85 db                	test   %ebx,%ebx
  403689:	74 0b                	je     403696 <error+0x1717>
  40368b:	c6 05 1e cb 23 00 00 	movb   $0x0,0x23cb1e(%rip)        # 6401b0 <stdout+0x90>
  403692:	eb 02                	jmp    403696 <error+0x1717>
  403694:	31 ed                	xor    %ebp,%ebp
  403696:	48 83 c4 10          	add    $0x10,%rsp
  40369a:	48 89 e8             	mov    %rbp,%rax
  40369d:	5b                   	pop    %rbx
  40369e:	5d                   	pop    %rbp
  40369f:	41 5c                	pop    %r12
  4036a1:	c3                   	retq   
  4036a2:	31 c0                	xor    %eax,%eax
  4036a4:	c3                   	retq   
  4036a5:	55                   	push   %rbp
  4036a6:	31 d2                	xor    %edx,%edx
  4036a8:	48 89 fe             	mov    %rdi,%rsi
  4036ab:	48 89 e5             	mov    %rsp,%rbp
  4036ae:	41 55                	push   %r13
  4036b0:	49 89 fd             	mov    %rdi,%r13
  4036b3:	31 ff                	xor    %edi,%edi
  4036b5:	41 54                	push   %r12
  4036b7:	53                   	push   %rbx
  4036b8:	48 83 ec 18          	sub    $0x18,%rsp
  4036bc:	64 48 8b 04 25 28 00 	mov    %fs:0x28,%rax
  4036c3:	00 00 
  4036c5:	48 89 45 d8          	mov    %rax,-0x28(%rbp)
  4036c9:	31 c0                	xor    %eax,%eax
  4036cb:	e8 00 e5 ff ff       	callq  401bd0 <mbstowcs@plt>
  4036d0:	48 8d 50 01          	lea    0x1(%rax),%rdx
  4036d4:	49 89 c4             	mov    %rax,%r12
  4036d7:	4c 89 ee             	mov    %r13,%rsi
  4036da:	48 8d 04 95 1e 00 00 	lea    0x1e(,%rdx,4),%rax
  4036e1:	00 
  4036e2:	48 83 e0 f0          	and    $0xfffffffffffffff0,%rax
  4036e6:	48 29 c4             	sub    %rax,%rsp
  4036e9:	48 8d 5c 24 0f       	lea    0xf(%rsp),%rbx
  4036ee:	48 83 e3 f0          	and    $0xfffffffffffffff0,%rbx
  4036f2:	48 89 df             	mov    %rbx,%rdi
  4036f5:	e8 d6 e4 ff ff       	callq  401bd0 <mbstowcs@plt>
  4036fa:	4c 89 e6             	mov    %r12,%rsi
  4036fd:	48 89 df             	mov    %rbx,%rdi
  403700:	e8 9b e4 ff ff       	callq  401ba0 <wcswidth@plt>
  403705:	48 8b 55 d8          	mov    -0x28(%rbp),%rdx
  403709:	64 48 33 14 25 28 00 	xor    %fs:0x28,%rdx
  403710:	00 00 
  403712:	48 98                	cltq   
  403714:	74 05                	je     40371b <error+0x179c>
  403716:	e8 25 e6 ff ff       	callq  401d40 <__stack_chk_fail@plt>
  40371b:	48 8d 65 e8          	lea    -0x18(%rbp),%rsp
  40371f:	5b                   	pop    %rbx
  403720:	41 5c                	pop    %r12
  403722:	41 5d                	pop    %r13
  403724:	c9                   	leaveq 
  403725:	c3                   	retq   
  403726:	53                   	push   %rbx
  403727:	31 ff                	xor    %edi,%edi
  403729:	be 5b d2 41 00       	mov    $0x41d25b,%esi
  40372e:	e8 1d e7 ff ff       	callq  401e50 <setlocale@plt>
  403733:	be 5b d2 41 00       	mov    $0x41d25b,%esi
  403738:	bf 05 00 00 00       	mov    $0x5,%edi
  40373d:	e8 0e e7 ff ff       	callq  401e50 <setlocale@plt>
  403742:	be 55 c4 43 00       	mov    $0x43c455,%esi
  403747:	bf 42 c4 43 00       	mov    $0x43c442,%edi
  40374c:	e8 cf e2 ff ff       	callq  401a20 <bindtextdomain@plt>
  403751:	bf 42 c4 43 00       	mov    $0x43c442,%edi
  403756:	e8 85 e2 ff ff       	callq  4019e0 <textdomain@plt>
  40375b:	31 ff                	xor    %edi,%edi
  40375d:	ba 05 00 00 00       	mov    $0x5,%edx
  403762:	be 67 c4 43 00       	mov    $0x43c467,%esi
  403767:	e8 c4 e5 ff ff       	callq  401d30 <dcgettext@plt>
  40376c:	31 ff                	xor    %edi,%edi
  40376e:	ba 05 00 00 00       	mov    $0x5,%edx
  403773:	be 6c cd 43 00       	mov    $0x43cd6c,%esi
  403778:	48 89 05 59 c9 23 00 	mov    %rax,0x23c959(%rip)        # 6400d8 <error+0x23e159>
  40377f:	e8 ac e5 ff ff       	callq  401d30 <dcgettext@plt>
  403784:	48 8b 3d 4d c9 23 00 	mov    0x23c94d(%rip),%rdi        # 6400d8 <error+0x23e159>
  40378b:	be 67 c4 43 00       	mov    $0x43c467,%esi
  403790:	48 89 c3             	mov    %rax,%rbx
  403793:	48 89 05 46 c9 23 00 	mov    %rax,0x23c946(%rip)        # 6400e0 <error+0x23e161>
  40379a:	e8 b1 e5 ff ff       	callq  401d50 <strcmp@plt>
  40379f:	85 c0                	test   %eax,%eax
  4037a1:	75 66                	jne    403809 <error+0x188a>
  4037a3:	be 6c cd 43 00       	mov    $0x43cd6c,%esi
  4037a8:	48 89 df             	mov    %rbx,%rdi
  4037ab:	e8 a0 e5 ff ff       	callq  401d50 <strcmp@plt>
  4037b0:	85 c0                	test   %eax,%eax
  4037b2:	75 55                	jne    403809 <error+0x188a>
  4037b4:	bf 0e 00 00 00       	mov    $0xe,%edi
  4037b9:	48 c7 05 14 c9 23 00 	movq   $0x43cd6c,0x23c914(%rip)        # 6400d8 <error+0x23e159>
  4037c0:	6c cd 43 00 
  4037c4:	e8 d7 e1 ff ff       	callq  4019a0 <nl_langinfo@plt>
  4037c9:	48 85 c0             	test   %rax,%rax
  4037cc:	48 89 c3             	mov    %rax,%rbx
  4037cf:	74 38                	je     403809 <error+0x188a>
  4037d1:	be 69 c4 43 00       	mov    $0x43c469,%esi
  4037d6:	48 89 c7             	mov    %rax,%rdi
  4037d9:	e8 32 e2 ff ff       	callq  401a10 <strcasecmp@plt>
  4037de:	85 c0                	test   %eax,%eax
  4037e0:	74 11                	je     4037f3 <error+0x1874>
  4037e2:	be 6f c4 43 00       	mov    $0x43c46f,%esi
  4037e7:	48 89 df             	mov    %rbx,%rdi
  4037ea:	e8 21 e2 ff ff       	callq  401a10 <strcasecmp@plt>
  4037ef:	85 c0                	test   %eax,%eax
  4037f1:	75 16                	jne    403809 <error+0x188a>
  4037f3:	48 c7 05 da c8 23 00 	movq   $0x43c474,0x23c8da(%rip)        # 6400d8 <error+0x23e159>
  4037fa:	74 c4 43 00 
  4037fe:	48 c7 05 d7 c8 23 00 	movq   $0x43c478,0x23c8d7(%rip)        # 6400e0 <error+0x23e161>
  403805:	78 c4 43 00 
  403809:	5b                   	pop    %rbx
  40380a:	c3                   	retq   
  40380b:	55                   	push   %rbp
  40380c:	89 f5                	mov    %esi,%ebp
  40380e:	8d 45 01             	lea    0x1(%rbp),%eax
  403811:	53                   	push   %rbx
  403812:	48 89 fb             	mov    %rdi,%rbx
  403815:	48 63 f8             	movslq %eax,%rdi
  403818:	48 83 ec 08          	sub    $0x8,%rsp
  40381c:	e8 6f 93 01 00       	callq  41cb90 <error+0x1ac11>
  403821:	48 63 d5             	movslq %ebp,%rdx
  403824:	48 89 de             	mov    %rbx,%rsi
  403827:	48 89 c7             	mov    %rax,%rdi
  40382a:	48 89 d1             	mov    %rdx,%rcx
  40382d:	f3 a4                	rep movsb %ds:(%rsi),%es:(%rdi)
  40382f:	c6 04 10 00          	movb   $0x0,(%rax,%rdx,1)
  403833:	48 89 05 ae c8 23 00 	mov    %rax,0x23c8ae(%rip)        # 6400e8 <error+0x23e169>
  40383a:	48 83 c4 08          	add    $0x8,%rsp
  40383e:	5b                   	pop    %rbx
  40383f:	5d                   	pop    %rbp
  403840:	c3                   	retq   
  403841:	41 55                	push   %r13
  403843:	41 89 d5             	mov    %edx,%r13d
  403846:	41 54                	push   %r12
  403848:	41 89 f4             	mov    %esi,%r12d
  40384b:	55                   	push   %rbp
  40384c:	53                   	push   %rbx
  40384d:	48 81 ec 88 01 00 00 	sub    $0x188,%rsp
  403854:	48 8d ac 24 10 01 00 	lea    0x110(%rsp),%rbp
  40385b:	00 
  40385c:	48 89 7c 24 20       	mov    %rdi,0x20(%rsp)
  403861:	89 74 24 28          	mov    %esi,0x28(%rsp)
  403865:	64 48 8b 04 25 28 00 	mov    %fs:0x28,%rax
  40386c:	00 00 
  40386e:	48 89 84 24 78 01 00 	mov    %rax,0x178(%rsp)
  403875:	00 
  403876:	31 c0                	xor    %eax,%eax
  403878:	48 89 54 24 10       	mov    %rdx,0x10(%rsp)
  40387d:	be 09 c5 43 00       	mov    $0x43c509,%esi
  403882:	89 fa                	mov    %edi,%edx
  403884:	48 8d 9c 24 a0 00 00 	lea    0xa0(%rsp),%rbx
  40388b:	00 
  40388c:	48 89 ef             	mov    %rbp,%rdi
  40388f:	89 4c 24 18          	mov    %ecx,0x18(%rsp)
  403893:	e8 28 e3 ff ff       	callq  401bc0 <sprintf@plt>
  403898:	44 89 e2             	mov    %r12d,%edx
  40389b:	4c 8d 64 24 30       	lea    0x30(%rsp),%r12
  4038a0:	be 22 c5 43 00       	mov    $0x43c522,%esi
  4038a5:	48 89 df             	mov    %rbx,%rdi
  4038a8:	31 c0                	xor    %eax,%eax
  4038aa:	e8 11 e3 ff ff       	callq  401bc0 <sprintf@plt>
  4038af:	44 89 ea             	mov    %r13d,%edx
  4038b2:	be 40 c5 43 00       	mov    $0x43c540,%esi
  4038b7:	4c 89 e7             	mov    %r12,%rdi
  4038ba:	31 c0                	xor    %eax,%eax
  4038bc:	e8 ff e2 ff ff       	callq  401bc0 <sprintf@plt>
  4038c1:	41 b9 81 c6 43 00    	mov    $0x43c681,%r9d
  4038c7:	48 89 da             	mov    %rbx,%rdx
  4038ca:	31 c0                	xor    %eax,%eax
  4038cc:	4d 89 e0             	mov    %r12,%r8
  4038cf:	4c 89 c9             	mov    %r9,%rcx
  4038d2:	4c 89 ce             	mov    %r9,%rsi
  4038d5:	48 89 ef             	mov    %rbp,%rdi
  4038d8:	48 c7 04 24 00 00 00 	movq   $0x0,(%rsp)
  4038df:	00 
  4038e0:	e8 6b 7e 01 00       	callq  41b750 <error+0x197d1>
  4038e5:	48 8b 94 24 78 01 00 	mov    0x178(%rsp),%rdx
  4038ec:	00 
  4038ed:	64 48 33 14 25 28 00 	xor    %fs:0x28,%rdx
  4038f4:	00 00 
  4038f6:	74 05                	je     4038fd <error+0x197e>
  4038f8:	e8 43 e4 ff ff       	callq  401d40 <__stack_chk_fail@plt>
  4038fd:	48 81 c4 88 01 00 00 	add    $0x188,%rsp
  403904:	5b                   	pop    %rbx
  403905:	5d                   	pop    %rbp
  403906:	41 5c                	pop    %r12
  403908:	41 5d                	pop    %r13
  40390a:	c3                   	retq   
  40390b:	41 57                	push   %r15
  40390d:	41 56                	push   %r14
  40390f:	41 55                	push   %r13
  403911:	41 54                	push   %r12
  403913:	55                   	push   %rbp
  403914:	53                   	push   %rbx
  403915:	48 81 ec d8 00 00 00 	sub    $0xd8,%rsp
  40391c:	85 ff                	test   %edi,%edi
  40391e:	48 89 b4 24 80 00 00 	mov    %rsi,0x80(%rsp)
  403925:	00 
  403926:	0f 8e f8 0d 00 00    	jle    404724 <error+0x27a5>
  40392c:	48 8b 1e             	mov    (%rsi),%rbx
  40392f:	be 3f d8 41 00       	mov    $0x41d83f,%esi
  403934:	48 89 df             	mov    %rbx,%rdi
  403937:	e8 14 e4 ff ff       	callq  401d50 <strcmp@plt>
  40393c:	85 c0                	test   %eax,%eax
  40393e:	41 0f 94 c4          	sete   %r12b
  403942:	74 15                	je     403959 <error+0x19da>
  403944:	be 1c d8 41 00       	mov    $0x41d81c,%esi
  403949:	48 89 df             	mov    %rbx,%rdi
  40394c:	e8 ff e3 ff ff       	callq  401d50 <strcmp@plt>
  403951:	85 c0                	test   %eax,%eax
  403953:	0f 85 cb 0d 00 00    	jne    404724 <error+0x27a5>
  403959:	31 f6                	xor    %esi,%esi
  40395b:	89 f0                	mov    %esi,%eax
  40395d:	0f a2                	cpuid  
  40395f:	85 c0                	test   %eax,%eax
  403961:	89 df                	mov    %ebx,%edi
  403963:	89 c6                	mov    %eax,%esi
  403965:	75 12                	jne    403979 <error+0x19fa>
  403967:	b8 5b d2 41 00       	mov    $0x41d25b,%eax
  40396c:	bb 59 c5 43 00       	mov    $0x43c559,%ebx
  403971:	48 89 c5             	mov    %rax,%rbp
  403974:	e9 74 0d 00 00       	jmpq   4046ed <error+0x276e>
  403979:	b8 01 00 00 00       	mov    $0x1,%eax
  40397e:	0f a2                	cpuid  
  403980:	41 89 c5             	mov    %eax,%r13d
  403983:	41 89 c7             	mov    %eax,%r15d
  403986:	89 54 24 44          	mov    %edx,0x44(%rsp)
  40398a:	41 c1 ed 04          	shr    $0x4,%r13d
  40398e:	41 c1 ef 08          	shr    $0x8,%r15d
  403992:	41 89 ce             	mov    %ecx,%r14d
  403995:	41 83 e5 0f          	and    $0xf,%r13d
  403999:	41 83 e7 0f          	and    $0xf,%r15d
  40399d:	81 ff 47 65 6e 75    	cmp    $0x756e6547,%edi
  4039a3:	75 2e                	jne    4039d3 <error+0x1a54>
  4039a5:	89 c2                	mov    %eax,%edx
  4039a7:	c1 ea 0c             	shr    $0xc,%edx
  4039aa:	81 e2 f0 00 00 00    	and    $0xf0,%edx
  4039b0:	41 83 ff 0f          	cmp    $0xf,%r15d
  4039b4:	75 10                	jne    4039c6 <error+0x1a47>
  4039b6:	c1 e8 14             	shr    $0x14,%eax
  4039b9:	41 01 d5             	add    %edx,%r13d
  4039bc:	44 0f b6 f8          	movzbl %al,%r15d
  4039c0:	41 83 c7 0f          	add    $0xf,%r15d
  4039c4:	eb 0d                	jmp    4039d3 <error+0x1a54>
  4039c6:	41 8d 54 15 00       	lea    0x0(%r13,%rdx,1),%edx
  4039cb:	41 83 ff 06          	cmp    $0x6,%r15d
  4039cf:	44 0f 44 ea          	cmove  %edx,%r13d
  4039d3:	8b 44 24 44          	mov    0x44(%rsp),%eax
  4039d7:	8b 4c 24 44          	mov    0x44(%rsp),%ecx
  4039db:	45 89 f0             	mov    %r14d,%r8d
  4039de:	8b 5c 24 44          	mov    0x44(%rsp),%ebx
  4039e2:	44 89 f5             	mov    %r14d,%ebp
  4039e5:	41 83 e0 01          	and    $0x1,%r8d
  4039e9:	81 e5 00 02 00 00    	and    $0x200,%ebp
  4039ef:	44 89 44 24 54       	mov    %r8d,0x54(%rsp)
  4039f4:	25 00 00 80 00       	and    $0x800000,%eax
  4039f9:	81 e1 00 00 00 02    	and    $0x2000000,%ecx
  4039ff:	89 6c 24 60          	mov    %ebp,0x60(%rsp)
  403a03:	81 e3 00 00 00 04    	and    $0x4000000,%ebx
  403a09:	89 44 24 50          	mov    %eax,0x50(%rsp)
  403a0d:	89 4c 24 7c          	mov    %ecx,0x7c(%rsp)
  403a11:	89 5c 24 5c          	mov    %ebx,0x5c(%rsp)
  403a15:	b8 00 00 00 80       	mov    $0x80000000,%eax
  403a1a:	0f a2                	cpuid  
  403a1c:	3d 00 00 00 80       	cmp    $0x80000000,%eax
  403a21:	89 44 24 3c          	mov    %eax,0x3c(%rsp)
  403a25:	77 53                	ja     403a7a <error+0x1afb>
  403a27:	c7 44 24 64 00 00 00 	movl   $0x0,0x64(%rsp)
  403a2e:	00 
  403a2f:	c7 44 24 40 00 00 00 	movl   $0x0,0x40(%rsp)
  403a36:	00 
  403a37:	45 31 c0             	xor    %r8d,%r8d
  403a3a:	c7 44 24 58 00 00 00 	movl   $0x0,0x58(%rsp)
  403a41:	00 
  403a42:	c7 44 24 68 00 00 00 	movl   $0x0,0x68(%rsp)
  403a49:	00 
  403a4a:	45 31 c9             	xor    %r9d,%r9d
  403a4d:	c7 44 24 6c 00 00 00 	movl   $0x0,0x6c(%rsp)
  403a54:	00 
  403a55:	c7 44 24 70 00 00 00 	movl   $0x0,0x70(%rsp)
  403a5c:	00 
  403a5d:	c7 44 24 74 00 00 00 	movl   $0x0,0x74(%rsp)
  403a64:	00 
  403a65:	c7 44 24 4c 00 00 00 	movl   $0x0,0x4c(%rsp)
  403a6c:	00 
  403a6d:	c7 44 24 78 00 00 00 	movl   $0x0,0x78(%rsp)
  403a74:	00 
  403a75:	e9 88 00 00 00       	jmpq   403b02 <error+0x1b83>
  403a7a:	b8 01 00 00 80       	mov    $0x80000001,%eax
  403a7f:	0f a2                	cpuid  
  403a81:	41 89 c9             	mov    %ecx,%r9d
  403a84:	41 89 c8             	mov    %ecx,%r8d
  403a87:	89 cb                	mov    %ecx,%ebx
  403a89:	41 83 e1 01          	and    $0x1,%r9d
  403a8d:	41 83 e0 20          	and    $0x20,%r8d
  403a91:	89 cd                	mov    %ecx,%ebp
  403a93:	81 e3 00 00 01 00    	and    $0x10000,%ebx
  403a99:	41 89 cb             	mov    %ecx,%r11d
  403a9c:	41 89 d2             	mov    %edx,%r10d
  403a9f:	44 89 4c 24 78       	mov    %r9d,0x78(%rsp)
  403aa4:	44 89 44 24 70       	mov    %r8d,0x70(%rsp)
  403aa9:	41 89 c9             	mov    %ecx,%r9d
  403aac:	41 89 d0             	mov    %edx,%r8d
  403aaf:	81 e1 00 00 20 00    	and    $0x200000,%ecx
  403ab5:	81 e2 00 00 00 80    	and    $0x80000000,%edx
  403abb:	81 e5 00 80 00 00    	and    $0x8000,%ebp
  403ac1:	89 5c 24 68          	mov    %ebx,0x68(%rsp)
  403ac5:	41 81 e3 00 08 00 00 	and    $0x800,%r11d
  403acc:	89 4c 24 64          	mov    %ecx,0x64(%rsp)
  403ad0:	41 81 e2 00 00 00 20 	and    $0x20000000,%r10d
  403ad7:	89 54 24 74          	mov    %edx,0x74(%rsp)
  403adb:	b8 07 00 00 00       	mov    $0x7,%eax
  403ae0:	41 83 e1 40          	and    $0x40,%r9d
  403ae4:	89 6c 24 6c          	mov    %ebp,0x6c(%rsp)
  403ae8:	0f a2                	cpuid  
  403aea:	83 e3 08             	and    $0x8,%ebx
  403aed:	44 89 5c 24 58       	mov    %r11d,0x58(%rsp)
  403af2:	44 89 54 24 4c       	mov    %r10d,0x4c(%rsp)
  403af7:	41 81 e0 00 00 00 40 	and    $0x40000000,%r8d
  403afe:	89 5c 24 40          	mov    %ebx,0x40(%rsp)
  403b02:	45 84 e4             	test   %r12b,%r12b
  403b05:	0f 85 a8 07 00 00    	jne    4042b3 <error+0x2334>
  403b0b:	81 ff 41 75 74 68    	cmp    $0x68747541,%edi
  403b11:	0f 85 f1 00 00 00    	jne    403c08 <error+0x1c89>
  403b17:	81 7c 24 3c 04 00 00 	cmpl   $0x80000004,0x3c(%rsp)
  403b1e:	80 
  403b1f:	bd 5b d2 41 00       	mov    $0x41d25b,%ebp
  403b24:	0f 86 96 07 00 00    	jbe    4042c0 <error+0x2341>
  403b2a:	b8 05 00 00 80       	mov    $0x80000005,%eax
  403b2f:	0f a2                	cpuid  
  403b31:	81 7c 24 3c 05 00 00 	cmpl   $0x80000005,0x3c(%rsp)
  403b38:	80 
  403b39:	89 ce                	mov    %ecx,%esi
  403b3b:	75 08                	jne    403b45 <error+0x1bc6>
  403b3d:	31 d2                	xor    %edx,%edx
  403b3f:	31 c9                	xor    %ecx,%ecx
  403b41:	31 c0                	xor    %eax,%eax
  403b43:	eb 4d                	jmp    403b92 <error+0x1c13>
  403b45:	b8 06 00 00 80       	mov    $0x80000006,%eax
  403b4a:	0f a2                	cpuid  
  403b4c:	89 ca                	mov    %ecx,%edx
  403b4e:	0f b6 c1             	movzbl %cl,%eax
  403b51:	c1 e9 0c             	shr    $0xc,%ecx
  403b54:	83 e1 0f             	and    $0xf,%ecx
  403b57:	c1 ea 10             	shr    $0x10,%edx
  403b5a:	83 f9 06             	cmp    $0x6,%ecx
  403b5d:	75 04                	jne    403b63 <error+0x1be4>
  403b5f:	b1 08                	mov    $0x8,%cl
  403b61:	eb 2f                	jmp    403b92 <error+0x1c13>
  403b63:	83 f9 08             	cmp    $0x8,%ecx
  403b66:	75 04                	jne    403b6c <error+0x1bed>
  403b68:	b1 10                	mov    $0x10,%cl
  403b6a:	eb 26                	jmp    403b92 <error+0x1c13>
  403b6c:	8d 79 f6             	lea    -0xa(%rcx),%edi
  403b6f:	83 ff 02             	cmp    $0x2,%edi
  403b72:	77 0b                	ja     403b7f <error+0x1c00>
  403b74:	81 c1 f8 ff ff 0f    	add    $0xffffff8,%ecx
  403b7a:	c1 e1 04             	shl    $0x4,%ecx
  403b7d:	eb 13                	jmp    403b92 <error+0x1c13>
  403b7f:	44 8d 69 f3          	lea    -0xd(%rcx),%r13d
  403b83:	41 83 fd 01          	cmp    $0x1,%r13d
  403b87:	77 09                	ja     403b92 <error+0x1c13>
  403b89:	81 c1 f6 ff ff 07    	add    $0x7fffff6,%ecx
  403b8f:	c1 e1 05             	shl    $0x5,%ecx
  403b92:	89 94 24 c0 00 00 00 	mov    %edx,0xc0(%rsp)
  403b99:	89 f2                	mov    %esi,%edx
  403b9b:	41 89 f2             	mov    %esi,%r10d
  403b9e:	c1 ea 10             	shr    $0x10,%edx
  403ba1:	41 c1 ea 18          	shr    $0x18,%r10d
  403ba5:	89 8c 24 c4 00 00 00 	mov    %ecx,0xc4(%rsp)
  403bac:	81 e2 ff 00 00 00    	and    $0xff,%edx
  403bb2:	44 89 94 24 b0 00 00 	mov    %r10d,0xb0(%rsp)
  403bb9:	00 
  403bba:	81 e6 ff 00 00 00    	and    $0xff,%esi
  403bc0:	89 94 24 b4 00 00 00 	mov    %edx,0xb4(%rsp)
  403bc7:	48 8b 94 24 c0 00 00 	mov    0xc0(%rsp),%rdx
  403bce:	00 
  403bcf:	89 c1                	mov    %eax,%ecx
  403bd1:	48 8b bc 24 b0 00 00 	mov    0xb0(%rsp),%rdi
  403bd8:	00 
  403bd9:	44 89 44 24 30       	mov    %r8d,0x30(%rsp)
  403bde:	44 89 4c 24 28       	mov    %r9d,0x28(%rsp)
  403be3:	89 84 24 c8 00 00 00 	mov    %eax,0xc8(%rsp)
  403bea:	89 b4 24 b8 00 00 00 	mov    %esi,0xb8(%rsp)
  403bf1:	e8 4b fc ff ff       	callq  403841 <error+0x18c2>
  403bf6:	44 8b 44 24 30       	mov    0x30(%rsp),%r8d
  403bfb:	48 89 c5             	mov    %rax,%rbp
  403bfe:	44 8b 4c 24 28       	mov    0x28(%rsp),%r9d
  403c03:	e9 b8 06 00 00       	jmpq   4042c0 <error+0x2341>
  403c08:	81 ff 47 65 6e 75    	cmp    $0x756e6547,%edi
  403c0e:	bd 5b d2 41 00       	mov    $0x41d25b,%ebp
  403c13:	0f 85 20 07 00 00    	jne    404339 <error+0x23ba>
  403c19:	41 83 fd 06          	cmp    $0x6,%r13d
  403c1d:	c7 84 24 c0 00 00 00 	movl   $0x0,0xc0(%rsp)
  403c24:	00 00 00 00 
  403c28:	c7 84 24 c4 00 00 00 	movl   $0x0,0xc4(%rsp)
  403c2f:	00 00 00 00 
  403c33:	0f 94 c1             	sete   %cl
  403c36:	41 83 ff 0f          	cmp    $0xf,%r15d
  403c3a:	c7 84 24 c8 00 00 00 	movl   $0x0,0xc8(%rsp)
  403c41:	00 00 00 00 
  403c45:	41 0f 94 c3          	sete   %r11b
  403c49:	c7 84 24 b0 00 00 00 	movl   $0x0,0xb0(%rsp)
  403c50:	00 00 00 00 
  403c54:	c7 84 24 b4 00 00 00 	movl   $0x0,0xb4(%rsp)
  403c5b:	00 00 00 00 
  403c5f:	41 21 cb             	and    %ecx,%r11d
  403c62:	83 fe 03             	cmp    $0x3,%esi
  403c65:	c7 84 24 b8 00 00 00 	movl   $0x0,0xb8(%rsp)
  403c6c:	00 00 00 00 
  403c70:	c7 84 24 a0 00 00 00 	movl   $0x0,0xa0(%rsp)
  403c77:	00 00 00 00 
  403c7b:	c7 84 24 a4 00 00 00 	movl   $0x0,0xa4(%rsp)
  403c82:	00 00 00 00 
  403c86:	c7 84 24 a8 00 00 00 	movl   $0x0,0xa8(%rsp)
  403c8d:	00 00 00 00 
  403c91:	0f 86 a4 00 00 00    	jbe    403d3b <error+0x1dbc>
  403c97:	48 8d ac 24 b0 00 00 	lea    0xb0(%rsp),%rbp
  403c9e:	00 
  403c9f:	4c 8d 84 24 a0 00 00 	lea    0xa0(%rsp),%r8
  403ca6:	00 
  403ca7:	4c 8d 8c 24 c0 00 00 	lea    0xc0(%rsp),%r9
  403cae:	00 
  403caf:	31 f6                	xor    %esi,%esi
  403cb1:	bf 04 00 00 00       	mov    $0x4,%edi
  403cb6:	89 f8                	mov    %edi,%eax
  403cb8:	89 f1                	mov    %esi,%ecx
  403cba:	0f a2                	cpuid  
  403cbc:	89 c2                	mov    %eax,%edx
  403cbe:	83 e2 1f             	and    $0x1f,%edx
  403cc1:	83 fa 01             	cmp    $0x1,%edx
  403cc4:	74 0b                	je     403cd1 <error+0x1d52>
  403cc6:	0f 82 05 05 00 00    	jb     4041d1 <error+0x2252>
  403ccc:	83 fa 03             	cmp    $0x3,%edx
  403ccf:	75 62                	jne    403d33 <error+0x1db4>
  403cd1:	c1 e8 05             	shr    $0x5,%eax
  403cd4:	83 e0 07             	and    $0x7,%eax
  403cd7:	83 f8 02             	cmp    $0x2,%eax
  403cda:	0f 84 58 0a 00 00    	je     404738 <error+0x27b9>
  403ce0:	83 f8 03             	cmp    $0x3,%eax
  403ce3:	74 07                	je     403cec <error+0x1d6d>
  403ce5:	83 f8 01             	cmp    $0x1,%eax
  403ce8:	75 49                	jne    403d33 <error+0x1db4>
  403cea:	eb 05                	jmp    403cf1 <error+0x1d72>
  403cec:	4c 89 c0             	mov    %r8,%rax
  403cef:	eb 03                	jmp    403cf4 <error+0x1d75>
  403cf1:	4c 89 c8             	mov    %r9,%rax
  403cf4:	89 da                	mov    %ebx,%edx
  403cf6:	41 89 db             	mov    %ebx,%r11d
  403cf9:	83 c1 01             	add    $0x1,%ecx
  403cfc:	c1 ea 16             	shr    $0x16,%edx
  403cff:	41 81 e3 ff 0f 00 00 	and    $0xfff,%r11d
  403d06:	c1 eb 0c             	shr    $0xc,%ebx
  403d09:	83 c2 01             	add    $0x1,%edx
  403d0c:	41 83 c3 01          	add    $0x1,%r11d
  403d10:	81 e3 ff 03 00 00    	and    $0x3ff,%ebx
  403d16:	44 89 58 08          	mov    %r11d,0x8(%rax)
  403d1a:	83 c3 01             	add    $0x1,%ebx
  403d1d:	89 50 04             	mov    %edx,0x4(%rax)
  403d20:	44 0f af da          	imul   %edx,%r11d
  403d24:	44 0f af d9          	imul   %ecx,%r11d
  403d28:	44 0f af db          	imul   %ebx,%r11d
  403d2c:	41 c1 eb 0a          	shr    $0xa,%r11d
  403d30:	44 89 18             	mov    %r11d,(%rax)
  403d33:	83 c6 01             	add    $0x1,%esi
  403d36:	e9 7b ff ff ff       	jmpq   403cb6 <error+0x1d37>
  403d3b:	83 fe 01             	cmp    $0x1,%esi
  403d3e:	0f 84 f5 05 00 00    	je     404339 <error+0x23ba>
  403d44:	b8 02 00 00 00       	mov    $0x2,%eax
  403d49:	45 31 d2             	xor    %r10d,%r10d
  403d4c:	45 31 c9             	xor    %r9d,%r9d
  403d4f:	0f a2                	cpuid  
  403d51:	89 9c 24 94 00 00 00 	mov    %ebx,0x94(%rsp)
  403d58:	48 8d 9c 24 90 00 00 	lea    0x90(%rsp),%rbx
  403d5f:	00 
  403d60:	89 c6                	mov    %eax,%esi
  403d62:	83 e6 0f             	and    $0xf,%esi
  403d65:	83 e0 f0             	and    $0xfffffffffffffff0,%eax
  403d68:	89 8c 24 98 00 00 00 	mov    %ecx,0x98(%rsp)
  403d6f:	48 83 c3 10          	add    $0x10,%rbx
  403d73:	89 74 24 48          	mov    %esi,0x48(%rsp)
  403d77:	89 94 24 9c 00 00 00 	mov    %edx,0x9c(%rsp)
  403d7e:	89 84 24 90 00 00 00 	mov    %eax,0x90(%rsp)
  403d85:	31 ed                	xor    %ebp,%ebp
  403d87:	31 ff                	xor    %edi,%edi
  403d89:	31 f6                	xor    %esi,%esi
  403d8b:	45 31 c0             	xor    %r8d,%r8d
  403d8e:	48 89 9c 24 88 00 00 	mov    %rbx,0x88(%rsp)
  403d95:	00 
  403d96:	e9 f0 03 00 00       	jmpq   40418b <error+0x220c>
  403d9b:	8b 10                	mov    (%rax),%edx
  403d9d:	85 d2                	test   %edx,%edx
  403d9f:	0f 8e aa 03 00 00    	jle    40414f <error+0x21d0>
  403da5:	b9 18 00 00 00       	mov    $0x18,%ecx
  403daa:	89 54 24 1c          	mov    %edx,0x1c(%rsp)
  403dae:	8b 5c 24 1c          	mov    0x1c(%rsp),%ebx
  403db2:	d3 eb                	shr    %cl,%ebx
  403db4:	81 e3 ff 00 00 00    	and    $0xff,%ebx
  403dba:	83 fb 60             	cmp    $0x60,%ebx
  403dbd:	0f 84 a1 02 00 00    	je     404064 <error+0x20e5>
  403dc3:	0f 87 ce 00 00 00    	ja     403e97 <error+0x1f18>
  403dc9:	83 fb 3d             	cmp    $0x3d,%ebx
  403dcc:	0f 84 fb 01 00 00    	je     403fcd <error+0x204e>
  403dd2:	77 66                	ja     403e3a <error+0x1ebb>
  403dd4:	83 fb 39             	cmp    $0x39,%ebx
  403dd7:	0f 84 c8 01 00 00    	je     403fa5 <error+0x2026>
  403ddd:	77 32                	ja     403e11 <error+0x1e92>
  403ddf:	83 fb 0c             	cmp    $0xc,%ebx
  403de2:	0f 84 8f 01 00 00    	je     403f77 <error+0x1ff8>
  403de8:	83 fb 2c             	cmp    $0x2c,%ebx
  403deb:	0f 84 9d 01 00 00    	je     403f8e <error+0x200f>
  403df1:	83 fb 0a             	cmp    $0xa,%ebx
  403df4:	bb 20 00 00 00       	mov    $0x20,%ebx
  403df9:	ba 08 00 00 00       	mov    $0x8,%edx
  403dfe:	44 0f 44 c3          	cmove  %ebx,%r8d
  403e02:	b3 02                	mov    $0x2,%bl
  403e04:	44 0f 44 d2          	cmove  %edx,%r10d
  403e08:	44 0f 44 cb          	cmove  %ebx,%r9d
  403e0c:	e9 32 03 00 00       	jmpq   404143 <error+0x21c4>
  403e11:	83 fb 3b             	cmp    $0x3b,%ebx
  403e14:	0f 84 9f 01 00 00    	je     403fb9 <error+0x203a>
  403e1a:	83 fb 3c             	cmp    $0x3c,%ebx
  403e1d:	be 40 00 00 00       	mov    $0x40,%esi
  403e22:	19 ed                	sbb    %ebp,%ebp
  403e24:	89 ef                	mov    %ebp,%edi
  403e26:	83 e5 c0             	and    $0xffffffffffffffc0,%ebp
  403e29:	83 e7 02             	and    $0x2,%edi
  403e2c:	81 c5 00 01 00 00    	add    $0x100,%ebp
  403e32:	83 c7 04             	add    $0x4,%edi
  403e35:	e9 09 03 00 00       	jmpq   404143 <error+0x21c4>
  403e3a:	83 fb 43             	cmp    $0x43,%ebx
  403e3d:	0f 84 c6 01 00 00    	je     404009 <error+0x208a>
  403e43:	77 1d                	ja     403e62 <error+0x1ee3>
  403e45:	83 fb 41             	cmp    $0x41,%ebx
  403e48:	0f 84 93 01 00 00    	je     403fe1 <error+0x2062>
  403e4e:	0f 87 a1 01 00 00    	ja     403ff5 <error+0x2076>
  403e54:	83 fb 3e             	cmp    $0x3e,%ebx
  403e57:	0f 85 e6 02 00 00    	jne    404143 <error+0x21c4>
  403e5d:	e9 c1 02 00 00       	jmpq   404123 <error+0x21a4>
  403e62:	83 fb 45             	cmp    $0x45,%ebx
  403e65:	0f 84 c6 01 00 00    	je     404031 <error+0x20b2>
  403e6b:	0f 82 ac 01 00 00    	jb     40401d <error+0x209e>
  403e71:	83 fb 49             	cmp    $0x49,%ebx
  403e74:	0f 84 cb 01 00 00    	je     404045 <error+0x20c6>
  403e7a:	83 fb 4e             	cmp    $0x4e,%ebx
  403e7d:	bb 40 00 00 00       	mov    $0x40,%ebx
  403e82:	ba 00 18 00 00       	mov    $0x1800,%edx
  403e87:	0f 44 f3             	cmove  %ebx,%esi
  403e8a:	b3 18                	mov    $0x18,%bl
  403e8c:	0f 44 ea             	cmove  %edx,%ebp
  403e8f:	0f 44 fb             	cmove  %ebx,%edi
  403e92:	e9 ac 02 00 00       	jmpq   404143 <error+0x21c4>
  403e97:	83 fb 7c             	cmp    $0x7c,%ebx
  403e9a:	0f 84 94 02 00 00    	je     404134 <error+0x21b5>
  403ea0:	77 66                	ja     403f08 <error+0x1f89>
  403ea2:	83 fb 78             	cmp    $0x78,%ebx
  403ea5:	0f 84 fe 01 00 00    	je     4040a9 <error+0x212a>
  403eab:	77 32                	ja     403edf <error+0x1f60>
  403ead:	83 fb 67             	cmp    $0x67,%ebx
  403eb0:	0f 84 c5 01 00 00    	je     40407b <error+0x20fc>
  403eb6:	83 fb 68             	cmp    $0x68,%ebx
  403eb9:	0f 84 d3 01 00 00    	je     404092 <error+0x2113>
  403ebf:	83 fb 66             	cmp    $0x66,%ebx
  403ec2:	bb 40 00 00 00       	mov    $0x40,%ebx
  403ec7:	ba 08 00 00 00       	mov    $0x8,%edx
  403ecc:	44 0f 44 c3          	cmove  %ebx,%r8d
  403ed0:	b3 04                	mov    $0x4,%bl
  403ed2:	44 0f 44 d2          	cmove  %edx,%r10d
  403ed6:	44 0f 44 cb          	cmove  %ebx,%r9d
  403eda:	e9 64 02 00 00       	jmpq   404143 <error+0x21c4>
  403edf:	83 fb 7a             	cmp    $0x7a,%ebx
  403ee2:	0f 84 d5 01 00 00    	je     4040bd <error+0x213e>
  403ee8:	83 fb 7b             	cmp    $0x7b,%ebx
  403eeb:	be 40 00 00 00       	mov    $0x40,%esi
  403ef0:	bf 08 00 00 00       	mov    $0x8,%edi
  403ef5:	19 ed                	sbb    %ebp,%ebp
  403ef7:	81 e5 80 fe ff ff    	and    $0xfffffe80,%ebp
  403efd:	81 c5 00 02 00 00    	add    $0x200,%ebp
  403f03:	e9 3b 02 00 00       	jmpq   404143 <error+0x21c4>
  403f08:	81 fb 83 00 00 00    	cmp    $0x83,%ebx
  403f0e:	0f 84 dc 01 00 00    	je     4040f0 <error+0x2171>
  403f14:	77 32                	ja     403f48 <error+0x1fc9>
  403f16:	83 fb 7f             	cmp    $0x7f,%ebx
  403f19:	0f 84 af 01 00 00    	je     4040ce <error+0x214f>
  403f1f:	81 fb 82 00 00 00    	cmp    $0x82,%ebx
  403f25:	0f 84 b4 01 00 00    	je     4040df <error+0x2160>
  403f2b:	83 fb 7d             	cmp    $0x7d,%ebx
  403f2e:	bb 40 00 00 00       	mov    $0x40,%ebx
  403f33:	ba 00 08 00 00       	mov    $0x800,%edx
  403f38:	0f 44 f3             	cmove  %ebx,%esi
  403f3b:	b3 08                	mov    $0x8,%bl
  403f3d:	0f 44 ea             	cmove  %edx,%ebp
  403f40:	0f 44 fb             	cmove  %ebx,%edi
  403f43:	e9 fb 01 00 00       	jmpq   404143 <error+0x21c4>
  403f48:	81 fb 85 00 00 00    	cmp    $0x85,%ebx
  403f4e:	0f 84 be 01 00 00    	je     404112 <error+0x2193>
  403f54:	0f 82 a7 01 00 00    	jb     404101 <error+0x2182>
  403f5a:	81 fb 86 00 00 00    	cmp    $0x86,%ebx
  403f60:	0f 84 bd 01 00 00    	je     404123 <error+0x21a4>
  403f66:	81 fb 87 00 00 00    	cmp    $0x87,%ebx
  403f6c:	0f 85 d1 01 00 00    	jne    404143 <error+0x21c4>
  403f72:	e9 bd 01 00 00       	jmpq   404134 <error+0x21b5>
  403f77:	41 b8 20 00 00 00    	mov    $0x20,%r8d
  403f7d:	41 b9 04 00 00 00    	mov    $0x4,%r9d
  403f83:	41 ba 10 00 00 00    	mov    $0x10,%r10d
  403f89:	e9 b5 01 00 00       	jmpq   404143 <error+0x21c4>
  403f8e:	41 b8 40 00 00 00    	mov    $0x40,%r8d
  403f94:	41 b9 08 00 00 00    	mov    $0x8,%r9d
  403f9a:	41 ba 20 00 00 00    	mov    $0x20,%r10d
  403fa0:	e9 9e 01 00 00       	jmpq   404143 <error+0x21c4>
  403fa5:	be 40 00 00 00       	mov    $0x40,%esi
  403faa:	bf 04 00 00 00       	mov    $0x4,%edi
  403faf:	bd 80 00 00 00       	mov    $0x80,%ebp
  403fb4:	e9 8a 01 00 00       	jmpq   404143 <error+0x21c4>
  403fb9:	be 40 00 00 00       	mov    $0x40,%esi
  403fbe:	bf 02 00 00 00       	mov    $0x2,%edi
  403fc3:	bd 80 00 00 00       	mov    $0x80,%ebp
  403fc8:	e9 76 01 00 00       	jmpq   404143 <error+0x21c4>
  403fcd:	be 40 00 00 00       	mov    $0x40,%esi
  403fd2:	bf 06 00 00 00       	mov    $0x6,%edi
  403fd7:	bd 80 01 00 00       	mov    $0x180,%ebp
  403fdc:	e9 62 01 00 00       	jmpq   404143 <error+0x21c4>
  403fe1:	be 20 00 00 00       	mov    $0x20,%esi
  403fe6:	bf 04 00 00 00       	mov    $0x4,%edi
  403feb:	bd 80 00 00 00       	mov    $0x80,%ebp
  403ff0:	e9 4e 01 00 00       	jmpq   404143 <error+0x21c4>
  403ff5:	be 20 00 00 00       	mov    $0x20,%esi
  403ffa:	bf 04 00 00 00       	mov    $0x4,%edi
  403fff:	bd 00 01 00 00       	mov    $0x100,%ebp
  404004:	e9 3a 01 00 00       	jmpq   404143 <error+0x21c4>
  404009:	be 20 00 00 00       	mov    $0x20,%esi
  40400e:	bf 04 00 00 00       	mov    $0x4,%edi
  404013:	bd 00 02 00 00       	mov    $0x200,%ebp
  404018:	e9 26 01 00 00       	jmpq   404143 <error+0x21c4>
  40401d:	be 20 00 00 00       	mov    $0x20,%esi
  404022:	bf 04 00 00 00       	mov    $0x4,%edi
  404027:	bd 00 04 00 00       	mov    $0x400,%ebp
  40402c:	e9 12 01 00 00       	jmpq   404143 <error+0x21c4>
  404031:	be 20 00 00 00       	mov    $0x20,%esi
  404036:	bf 04 00 00 00       	mov    $0x4,%edi
  40403b:	bd 00 08 00 00       	mov    $0x800,%ebp
  404040:	e9 fe 00 00 00       	jmpq   404143 <error+0x21c4>
  404045:	45 84 db             	test   %r11b,%r11b
  404048:	ba 10 00 00 00       	mov    $0x10,%edx
  40404d:	bb 40 00 00 00       	mov    $0x40,%ebx
  404052:	0f 44 fa             	cmove  %edx,%edi
  404055:	66 ba 00 10          	mov    $0x1000,%dx
  404059:	0f 44 f3             	cmove  %ebx,%esi
  40405c:	0f 44 ea             	cmove  %edx,%ebp
  40405f:	e9 df 00 00 00       	jmpq   404143 <error+0x21c4>
  404064:	41 b8 40 00 00 00    	mov    $0x40,%r8d
  40406a:	41 b9 08 00 00 00    	mov    $0x8,%r9d
  404070:	41 ba 10 00 00 00    	mov    $0x10,%r10d
  404076:	e9 c8 00 00 00       	jmpq   404143 <error+0x21c4>
  40407b:	41 b8 40 00 00 00    	mov    $0x40,%r8d
  404081:	41 b9 04 00 00 00    	mov    $0x4,%r9d
  404087:	41 ba 10 00 00 00    	mov    $0x10,%r10d
  40408d:	e9 b1 00 00 00       	jmpq   404143 <error+0x21c4>
  404092:	41 b8 40 00 00 00    	mov    $0x40,%r8d
  404098:	41 b9 04 00 00 00    	mov    $0x4,%r9d
  40409e:	41 ba 20 00 00 00    	mov    $0x20,%r10d
  4040a4:	e9 9a 00 00 00       	jmpq   404143 <error+0x21c4>
  4040a9:	be 40 00 00 00       	mov    $0x40,%esi
  4040ae:	bf 04 00 00 00       	mov    $0x4,%edi
  4040b3:	bd 00 04 00 00       	mov    $0x400,%ebp
  4040b8:	e9 86 00 00 00       	jmpq   404143 <error+0x21c4>
  4040bd:	be 40 00 00 00       	mov    $0x40,%esi
  4040c2:	bf 08 00 00 00       	mov    $0x8,%edi
  4040c7:	bd 00 01 00 00       	mov    $0x100,%ebp
  4040cc:	eb 75                	jmp    404143 <error+0x21c4>
  4040ce:	be 40 00 00 00       	mov    $0x40,%esi
  4040d3:	bf 02 00 00 00       	mov    $0x2,%edi
  4040d8:	bd 00 02 00 00       	mov    $0x200,%ebp
  4040dd:	eb 64                	jmp    404143 <error+0x21c4>
  4040df:	be 20 00 00 00       	mov    $0x20,%esi
  4040e4:	bf 08 00 00 00       	mov    $0x8,%edi
  4040e9:	bd 00 01 00 00       	mov    $0x100,%ebp
  4040ee:	eb 53                	jmp    404143 <error+0x21c4>
  4040f0:	be 20 00 00 00       	mov    $0x20,%esi
  4040f5:	bf 08 00 00 00       	mov    $0x8,%edi
  4040fa:	bd 00 02 00 00       	mov    $0x200,%ebp
  4040ff:	eb 42                	jmp    404143 <error+0x21c4>
  404101:	be 20 00 00 00       	mov    $0x20,%esi
  404106:	bf 08 00 00 00       	mov    $0x8,%edi
  40410b:	bd 00 04 00 00       	mov    $0x400,%ebp
  404110:	eb 31                	jmp    404143 <error+0x21c4>
  404112:	be 20 00 00 00       	mov    $0x20,%esi
  404117:	bf 08 00 00 00       	mov    $0x8,%edi
  40411c:	bd 00 08 00 00       	mov    $0x800,%ebp
  404121:	eb 20                	jmp    404143 <error+0x21c4>
  404123:	be 40 00 00 00       	mov    $0x40,%esi
  404128:	bf 04 00 00 00       	mov    $0x4,%edi
  40412d:	bd 00 02 00 00       	mov    $0x200,%ebp
  404132:	eb 0f                	jmp    404143 <error+0x21c4>
  404134:	be 40 00 00 00       	mov    $0x40,%esi
  404139:	bf 08 00 00 00       	mov    $0x8,%edi
  40413e:	bd 00 04 00 00       	mov    $0x400,%ebp
  404143:	83 e9 08             	sub    $0x8,%ecx
  404146:	83 f9 f8             	cmp    $0xfffffffffffffff8,%ecx
  404149:	0f 85 5f fc ff ff    	jne    403dae <error+0x1e2f>
  40414f:	48 83 c0 04          	add    $0x4,%rax
  404153:	48 3b 84 24 88 00 00 	cmp    0x88(%rsp),%rax
  40415a:	00 
  40415b:	0f 85 3a fc ff ff    	jne    403d9b <error+0x1e1c>
  404161:	83 7c 24 48 00       	cmpl   $0x0,0x48(%rsp)
  404166:	74 23                	je     40418b <error+0x220c>
  404168:	b8 02 00 00 00       	mov    $0x2,%eax
  40416d:	0f a2                	cpuid  
  40416f:	89 84 24 90 00 00 00 	mov    %eax,0x90(%rsp)
  404176:	89 9c 24 94 00 00 00 	mov    %ebx,0x94(%rsp)
  40417d:	89 8c 24 98 00 00 00 	mov    %ecx,0x98(%rsp)
  404184:	89 94 24 9c 00 00 00 	mov    %edx,0x9c(%rsp)
  40418b:	83 6c 24 48 01       	subl   $0x1,0x48(%rsp)
  404190:	83 7c 24 48 ff       	cmpl   $0xffffffffffffffff,0x48(%rsp)
  404195:	74 0d                	je     4041a4 <error+0x2225>
  404197:	48 8d 84 24 90 00 00 	lea    0x90(%rsp),%rax
  40419e:	00 
  40419f:	e9 f7 fb ff ff       	jmpq   403d9b <error+0x1e1c>
  4041a4:	44 89 94 24 c0 00 00 	mov    %r10d,0xc0(%rsp)
  4041ab:	00 
  4041ac:	44 89 8c 24 c4 00 00 	mov    %r9d,0xc4(%rsp)
  4041b3:	00 
  4041b4:	44 89 84 24 c8 00 00 	mov    %r8d,0xc8(%rsp)
  4041bb:	00 
  4041bc:	89 ac 24 b0 00 00 00 	mov    %ebp,0xb0(%rsp)
  4041c3:	89 bc 24 b4 00 00 00 	mov    %edi,0xb4(%rsp)
  4041ca:	89 b4 24 b8 00 00 00 	mov    %esi,0xb8(%rsp)
  4041d1:	83 bc 24 c0 00 00 00 	cmpl   $0x0,0xc0(%rsp)
  4041d8:	00 
  4041d9:	bd 5b d2 41 00       	mov    $0x41d25b,%ebp
  4041de:	0f 84 55 01 00 00    	je     404339 <error+0x23ba>
  4041e4:	83 bc 24 a0 00 00 00 	cmpl   $0x0,0xa0(%rsp)
  4041eb:	00 
  4041ec:	74 1e                	je     40420c <error+0x228d>
  4041ee:	4c 8b 84 24 a0 00 00 	mov    0xa0(%rsp),%r8
  4041f5:	00 
  4041f6:	8b ac 24 a8 00 00 00 	mov    0xa8(%rsp),%ebp
  4041fd:	4c 89 84 24 b0 00 00 	mov    %r8,0xb0(%rsp)
  404204:	00 
  404205:	89 ac 24 b8 00 00 00 	mov    %ebp,0xb8(%rsp)
  40420c:	81 7c 24 3c 05 00 00 	cmpl   $0x80000005,0x3c(%rsp)
  404213:	80 
  404214:	76 72                	jbe    404288 <error+0x2309>
  404216:	83 bc 24 b0 00 00 00 	cmpl   $0x0,0xb0(%rsp)
  40421d:	00 
  40421e:	75 68                	jne    404288 <error+0x2309>
  404220:	b8 06 00 00 80       	mov    $0x80000006,%eax
  404225:	0f a2                	cpuid  
  404227:	89 c8                	mov    %ecx,%eax
  404229:	c1 e8 0c             	shr    $0xc,%eax
  40422c:	83 e0 0f             	and    $0xf,%eax
  40422f:	83 f8 06             	cmp    $0x6,%eax
  404232:	75 04                	jne    404238 <error+0x22b9>
  404234:	b0 08                	mov    $0x8,%al
  404236:	eb 2d                	jmp    404265 <error+0x22e6>
  404238:	83 f8 08             	cmp    $0x8,%eax
  40423b:	75 04                	jne    404241 <error+0x22c2>
  40423d:	b0 10                	mov    $0x10,%al
  40423f:	eb 24                	jmp    404265 <error+0x22e6>
  404241:	44 8d 48 f6          	lea    -0xa(%rax),%r9d
  404245:	41 83 f9 02          	cmp    $0x2,%r9d
  404249:	77 0a                	ja     404255 <error+0x22d6>
  40424b:	05 f8 ff ff 0f       	add    $0xffffff8,%eax
  404250:	c1 e0 04             	shl    $0x4,%eax
  404253:	eb 10                	jmp    404265 <error+0x22e6>
  404255:	8d 78 f3             	lea    -0xd(%rax),%edi
  404258:	83 ff 01             	cmp    $0x1,%edi
  40425b:	77 08                	ja     404265 <error+0x22e6>
  40425d:	05 f6 ff ff 07       	add    $0x7fffff6,%eax
  404262:	c1 e0 05             	shl    $0x5,%eax
  404265:	41 89 ca             	mov    %ecx,%r10d
  404268:	81 e1 ff 00 00 00    	and    $0xff,%ecx
  40426e:	89 84 24 b4 00 00 00 	mov    %eax,0xb4(%rsp)
  404275:	41 c1 ea 10          	shr    $0x10,%r10d
  404279:	89 8c 24 b8 00 00 00 	mov    %ecx,0xb8(%rsp)
  404280:	44 89 94 24 b0 00 00 	mov    %r10d,0xb0(%rsp)
  404287:	00 
  404288:	48 8b 94 24 b0 00 00 	mov    0xb0(%rsp),%rdx
  40428f:	00 
  404290:	8b 8c 24 b8 00 00 00 	mov    0xb8(%rsp),%ecx
  404297:	48 8b bc 24 c0 00 00 	mov    0xc0(%rsp),%rdi
  40429e:	00 
  40429f:	8b b4 24 c8 00 00 00 	mov    0xc8(%rsp),%esi
  4042a6:	e8 96 f5 ff ff       	callq  403841 <error+0x18c2>
  4042ab:	48 89 c5             	mov    %rax,%rbp
  4042ae:	e9 86 00 00 00       	jmpq   404339 <error+0x23ba>
  4042b3:	81 ff 41 75 74 68    	cmp    $0x68747541,%edi
  4042b9:	bd 5b d2 41 00       	mov    $0x41d25b,%ebp
  4042be:	75 79                	jne    404339 <error+0x23ba>
  4042c0:	81 7c 24 3c 01 00 00 	cmpl   $0x80000001,0x3c(%rsp)
  4042c7:	80 
  4042c8:	76 12                	jbe    4042dc <error+0x235d>
  4042ca:	b8 02 00 00 80       	mov    $0x80000002,%eax
  4042cf:	0f a2                	cpuid  
  4042d1:	3d 47 65 6f 64       	cmp    $0x646f6547,%eax
  4042d6:	0f 84 7c 01 00 00    	je     404458 <error+0x24d9>
  4042dc:	83 7c 24 40 00       	cmpl   $0x0,0x40(%rsp)
  4042e1:	0f 85 ec 01 00 00    	jne    4044d3 <error+0x2554>
  4042e7:	83 7c 24 58 00       	cmpl   $0x0,0x58(%rsp)
  4042ec:	0f 85 d7 01 00 00    	jne    4044c9 <error+0x254a>
  4042f2:	45 85 c9             	test   %r9d,%r9d
  4042f5:	74 10                	je     404307 <error+0x2388>
  4042f7:	83 7c 24 60 00       	cmpl   $0x0,0x60(%rsp)
  4042fc:	0f 85 d8 01 00 00    	jne    4044da <error+0x255b>
  404302:	e9 b8 01 00 00       	jmpq   4044bf <error+0x2540>
  404307:	83 7c 24 4c 00       	cmpl   $0x0,0x4c(%rsp)
  40430c:	0f 85 8e 01 00 00    	jne    4044a0 <error+0x2521>
  404312:	83 7c 24 5c 00       	cmpl   $0x0,0x5c(%rsp)
  404317:	0f 85 83 01 00 00    	jne    4044a0 <error+0x2521>
  40431d:	45 85 c0             	test   %r8d,%r8d
  404320:	74 0a                	je     40432c <error+0x23ad>
  404322:	41 83 ff 06          	cmp    $0x6,%r15d
  404326:	0f 84 55 01 00 00    	je     404481 <error+0x2502>
  40432c:	83 7c 24 50 00       	cmpl   $0x0,0x50(%rsp)
  404331:	0f 85 2b 01 00 00    	jne    404462 <error+0x24e3>
  404337:	eb 4f                	jmp    404388 <error+0x2409>
  404339:	41 83 ef 04          	sub    $0x4,%r15d
  40433d:	41 83 ff 0b          	cmp    $0xb,%r15d
  404341:	0f 87 9a 01 00 00    	ja     4044e1 <error+0x2562>
  404347:	45 89 ff             	mov    %r15d,%r15d
  40434a:	42 83 3c bd 40 c7 43 	cmpl   $0x10,0x43c740(,%r15,4)
  404351:	00 10 
  404353:	0f 87 88 01 00 00    	ja     4044e1 <error+0x2562>
  404359:	46 8b 1c bd 40 c7 43 	mov    0x43c740(,%r15,4),%r11d
  404360:	00 
  404361:	42 ff 24 dd a0 c6 43 	jmpq   *0x43c6a0(,%r11,8)
  404368:	00 
  404369:	bb 5e c5 43 00       	mov    $0x43c55e,%ebx
  40436e:	e9 e2 01 00 00       	jmpq   404555 <error+0x25d6>
  404373:	83 7c 24 50 00       	cmpl   $0x0,0x50(%rsp)
  404378:	74 0e                	je     404388 <error+0x2409>
  40437a:	45 84 e4             	test   %r12b,%r12b
  40437d:	bb 63 c5 43 00       	mov    $0x43c563,%ebx
  404382:	0f 85 db 01 00 00    	jne    404563 <error+0x25e4>
  404388:	bb 6f c5 43 00       	mov    $0x43c56f,%ebx
  40438d:	e9 c3 01 00 00       	jmpq   404555 <error+0x25d6>
  404392:	41 83 fd 2f          	cmp    $0x2f,%r13d
  404396:	77 3b                	ja     4043d3 <error+0x2454>
  404398:	b8 01 00 00 00       	mov    $0x1,%eax
  40439d:	44 88 e9             	mov    %r13b,%cl
  4043a0:	49 bf 00 80 80 e4 20 	mov    $0xc020e4808000,%r15
  4043a7:	c0 00 00 
  4043aa:	48 d3 e0             	shl    %cl,%rax
  4043ad:	bb 77 c5 43 00       	mov    $0x43c577,%ebx
  4043b2:	4c 85 f8             	test   %r15,%rax
  4043b5:	0f 85 9a 01 00 00    	jne    404555 <error+0x25d6>
  4043bb:	49 bd 00 00 00 10 40 	mov    $0x4010000000,%r13
  4043c2:	00 00 00 
  4043c5:	bb 7d c5 43 00       	mov    $0x43c57d,%ebx
  4043ca:	4c 85 e8             	test   %r13,%rax
  4043cd:	0f 85 82 01 00 00    	jne    404555 <error+0x25d6>
  4043d3:	45 84 e4             	test   %r12b,%r12b
  4043d6:	0f 84 07 03 00 00    	je     4046e3 <error+0x2764>
  4043dc:	83 7c 24 60 00       	cmpl   $0x0,0x60(%rsp)
  4043e1:	bb 77 c5 43 00       	mov    $0x43c577,%ebx
  4043e6:	0f 85 77 01 00 00    	jne    404563 <error+0x25e4>
  4043ec:	83 7c 24 54 00       	cmpl   $0x0,0x54(%rsp)
  4043f1:	bb 82 c5 43 00       	mov    $0x43c582,%ebx
  4043f6:	0f 85 67 01 00 00    	jne    404563 <error+0x25e4>
  4043fc:	83 7c 24 5c 00       	cmpl   $0x0,0x5c(%rsp)
  404401:	0f 85 5c 01 00 00    	jne    404563 <error+0x25e4>
  404407:	83 7c 24 7c 00       	cmpl   $0x0,0x7c(%rsp)
  40440c:	bb 8c c5 43 00       	mov    $0x43c58c,%ebx
  404411:	0f 85 4c 01 00 00    	jne    404563 <error+0x25e4>
  404417:	83 7c 24 50 00       	cmpl   $0x0,0x50(%rsp)
  40441c:	bb 95 c5 43 00       	mov    $0x43c595,%ebx
  404421:	41 bc a0 c5 43 00    	mov    $0x43c5a0,%r12d
  404427:	49 0f 45 dc          	cmovne %r12,%rbx
  40442b:	e9 33 01 00 00       	jmpq   404563 <error+0x25e4>
  404430:	83 7c 24 54 00       	cmpl   $0x0,0x54(%rsp)
  404435:	bb a9 c5 43 00       	mov    $0x43c5a9,%ebx
  40443a:	0f 84 15 01 00 00    	je     404555 <error+0x25d6>
  404440:	83 7c 24 4c 00       	cmpl   $0x0,0x4c(%rsp)
  404445:	bb b2 c5 43 00       	mov    $0x43c5b2,%ebx
  40444a:	be bb c5 43 00       	mov    $0x43c5bb,%esi
  40444f:	48 0f 45 de          	cmovne %rsi,%rbx
  404453:	e9 fd 00 00 00       	jmpq   404555 <error+0x25d6>
  404458:	bb c2 c5 43 00       	mov    $0x43c5c2,%ebx
  40445d:	e9 f3 00 00 00       	jmpq   404555 <error+0x25d6>
  404462:	83 7c 24 74 00       	cmpl   $0x0,0x74(%rsp)
  404467:	74 0e                	je     404477 <error+0x24f8>
  404469:	45 84 e4             	test   %r12b,%r12b
  40446c:	bb c8 c5 43 00       	mov    $0x43c5c8,%ebx
  404471:	0f 85 ec 00 00 00    	jne    404563 <error+0x25e4>
  404477:	bb cd c5 43 00       	mov    $0x43c5cd,%ebx
  40447c:	e9 d4 00 00 00       	jmpq   404555 <error+0x25d6>
  404481:	83 7c 24 7c 00       	cmpl   $0x0,0x7c(%rsp)
  404486:	74 0e                	je     404496 <error+0x2517>
  404488:	45 84 e4             	test   %r12b,%r12b
  40448b:	bb d0 c5 43 00       	mov    $0x43c5d0,%ebx
  404490:	0f 85 cd 00 00 00    	jne    404563 <error+0x25e4>
  404496:	bb d9 c5 43 00       	mov    $0x43c5d9,%ebx
  40449b:	e9 b5 00 00 00       	jmpq   404555 <error+0x25d6>
  4044a0:	83 7c 24 54 00       	cmpl   $0x0,0x54(%rsp)
  4044a5:	74 0e                	je     4044b5 <error+0x2536>
  4044a7:	45 84 e4             	test   %r12b,%r12b
  4044aa:	bb e0 c5 43 00       	mov    $0x43c5e0,%ebx
  4044af:	0f 85 ae 00 00 00    	jne    404563 <error+0x25e4>
  4044b5:	bb e8 c5 43 00       	mov    $0x43c5e8,%ebx
  4044ba:	e9 96 00 00 00       	jmpq   404555 <error+0x25d6>
  4044bf:	bb eb c5 43 00       	mov    $0x43c5eb,%ebx
  4044c4:	e9 8c 00 00 00       	jmpq   404555 <error+0x25d6>
  4044c9:	bb f4 c5 43 00       	mov    $0x43c5f4,%ebx
  4044ce:	e9 82 00 00 00       	jmpq   404555 <error+0x25d6>
  4044d3:	bb fb c5 43 00       	mov    $0x43c5fb,%ebx
  4044d8:	eb 7b                	jmp    404555 <error+0x25d6>
  4044da:	bb 02 c6 43 00       	mov    $0x43c602,%ebx
  4044df:	eb 74                	jmp    404555 <error+0x25d6>
  4044e1:	45 84 e4             	test   %r12b,%r12b
  4044e4:	0f 84 f9 01 00 00    	je     4046e3 <error+0x2764>
  4044ea:	83 7c 24 60 00       	cmpl   $0x0,0x60(%rsp)
  4044ef:	bb 77 c5 43 00       	mov    $0x43c577,%ebx
  4044f4:	75 6d                	jne    404563 <error+0x25e4>
  4044f6:	83 7c 24 54 00       	cmpl   $0x0,0x54(%rsp)
  4044fb:	74 15                	je     404512 <error+0x2593>
  4044fd:	83 7c 24 4c 00       	cmpl   $0x0,0x4c(%rsp)
  404502:	bb b2 c5 43 00       	mov    $0x43c5b2,%ebx
  404507:	ba bb c5 43 00       	mov    $0x43c5bb,%edx
  40450c:	48 0f 45 da          	cmovne %rdx,%rbx
  404510:	eb 51                	jmp    404563 <error+0x25e4>
  404512:	83 7c 24 5c 00       	cmpl   $0x0,0x5c(%rsp)
  404517:	bb a9 c5 43 00       	mov    $0x43c5a9,%ebx
  40451c:	75 45                	jne    404563 <error+0x25e4>
  40451e:	66 83 7c 24 44 00    	cmpw   $0x0,0x44(%rsp)
  404524:	bb 95 c5 43 00       	mov    $0x43c595,%ebx
  404529:	78 38                	js     404563 <error+0x25e4>
  40452b:	83 7c 24 50 00       	cmpl   $0x0,0x50(%rsp)
  404530:	bb 63 c5 43 00       	mov    $0x43c563,%ebx
  404535:	75 2c                	jne    404563 <error+0x25e4>
  404537:	f7 44 24 44 00 01 00 	testl  $0x100,0x44(%rsp)
  40453e:	00 
  40453f:	bb 59 c5 43 00       	mov    $0x43c559,%ebx
  404544:	41 b8 6f c5 43 00    	mov    $0x43c56f,%r8d
  40454a:	49 0f 45 d8          	cmovne %r8,%rbx
  40454e:	eb 13                	jmp    404563 <error+0x25e4>
  404550:	bb 59 c5 43 00       	mov    $0x43c559,%ebx
  404555:	45 84 e4             	test   %r12b,%r12b
  404558:	b8 5b d2 41 00       	mov    $0x41d25b,%eax
  40455d:	0f 84 8a 01 00 00    	je     4046ed <error+0x276e>
  404563:	41 f7 c6 00 20 00 00 	test   $0x2000,%r14d
  40456a:	b8 5b d2 41 00       	mov    $0x41d25b,%eax
  40456f:	74 11                	je     404582 <error+0x2603>
  404571:	48 89 c7             	mov    %rax,%rdi
  404574:	31 d2                	xor    %edx,%edx
  404576:	be 09 c6 43 00       	mov    $0x43c609,%esi
  40457b:	31 c0                	xor    %eax,%eax
  40457d:	e8 ce 71 01 00       	callq  41b750 <error+0x197d1>
  404582:	83 7c 24 78 00       	cmpl   $0x0,0x78(%rsp)
  404587:	74 11                	je     40459a <error+0x261b>
  404589:	48 89 c7             	mov    %rax,%rdi
  40458c:	31 d2                	xor    %edx,%edx
  40458e:	be 11 c6 43 00       	mov    $0x43c611,%esi
  404593:	31 c0                	xor    %eax,%eax
  404595:	e8 b6 71 01 00       	callq  41b750 <error+0x197d1>
  40459a:	41 f7 c6 00 00 40 00 	test   $0x400000,%r14d
  4045a1:	74 11                	je     4045b4 <error+0x2635>
  4045a3:	48 89 c7             	mov    %rax,%rdi
  4045a6:	31 d2                	xor    %edx,%edx
  4045a8:	be 19 c6 43 00       	mov    $0x43c619,%esi
  4045ad:	31 c0                	xor    %eax,%eax
  4045af:	e8 9c 71 01 00       	callq  41b750 <error+0x197d1>
  4045b4:	41 f7 c6 00 00 00 02 	test   $0x2000000,%r14d
  4045bb:	74 11                	je     4045ce <error+0x264f>
  4045bd:	48 89 c7             	mov    %rax,%rdi
  4045c0:	31 d2                	xor    %edx,%edx
  4045c2:	be 22 c6 43 00       	mov    $0x43c622,%esi
  4045c7:	31 c0                	xor    %eax,%eax
  4045c9:	e8 82 71 01 00       	callq  41b750 <error+0x197d1>
  4045ce:	41 f6 c6 02          	test   $0x2,%r14b
  4045d2:	74 11                	je     4045e5 <error+0x2666>
  4045d4:	48 89 c7             	mov    %rax,%rdi
  4045d7:	31 d2                	xor    %edx,%edx
  4045d9:	be 29 c6 43 00       	mov    $0x43c629,%esi
  4045de:	31 c0                	xor    %eax,%eax
  4045e0:	e8 6b 71 01 00       	callq  41b750 <error+0x197d1>
  4045e5:	41 f7 c6 00 00 80 00 	test   $0x800000,%r14d
  4045ec:	74 11                	je     4045ff <error+0x2680>
  4045ee:	48 89 c7             	mov    %rax,%rdi
  4045f1:	31 d2                	xor    %edx,%edx
  4045f3:	be 33 c6 43 00       	mov    $0x43c633,%esi
  4045f8:	31 c0                	xor    %eax,%eax
  4045fa:	e8 51 71 01 00       	callq  41b750 <error+0x197d1>
  4045ff:	83 7c 24 70 00       	cmpl   $0x0,0x70(%rsp)
  404604:	74 11                	je     404617 <error+0x2698>
  404606:	48 89 c7             	mov    %rax,%rdi
  404609:	31 d2                	xor    %edx,%edx
  40460b:	be 3d c6 43 00       	mov    $0x43c63d,%esi
  404610:	31 c0                	xor    %eax,%eax
  404612:	e8 39 71 01 00       	callq  41b750 <error+0x197d1>
  404617:	83 7c 24 6c 00       	cmpl   $0x0,0x6c(%rsp)
  40461c:	74 11                	je     40462f <error+0x26b0>
  40461e:	48 89 c7             	mov    %rax,%rdi
  404621:	31 d2                	xor    %edx,%edx
  404623:	be 44 c6 43 00       	mov    $0x43c644,%esi
  404628:	31 c0                	xor    %eax,%eax
  40462a:	e8 21 71 01 00       	callq  41b750 <error+0x197d1>
  40462f:	83 7c 24 68 00       	cmpl   $0x0,0x68(%rsp)
  404634:	74 11                	je     404647 <error+0x26c8>
  404636:	48 89 c7             	mov    %rax,%rdi
  404639:	31 d2                	xor    %edx,%edx
  40463b:	be 4b c6 43 00       	mov    $0x43c64b,%esi
  404640:	31 c0                	xor    %eax,%eax
  404642:	e8 09 71 01 00       	callq  41b750 <error+0x197d1>
  404647:	83 7c 24 58 00       	cmpl   $0x0,0x58(%rsp)
  40464c:	74 11                	je     40465f <error+0x26e0>
  40464e:	48 89 c7             	mov    %rax,%rdi
  404651:	31 d2                	xor    %edx,%edx
  404653:	be 53 c6 43 00       	mov    $0x43c653,%esi
  404658:	31 c0                	xor    %eax,%eax
  40465a:	e8 f1 70 01 00       	callq  41b750 <error+0x197d1>
  40465f:	83 7c 24 40 00       	cmpl   $0x0,0x40(%rsp)
  404664:	74 11                	je     404677 <error+0x26f8>
  404666:	48 89 c7             	mov    %rax,%rdi
  404669:	31 d2                	xor    %edx,%edx
  40466b:	be 5a c6 43 00       	mov    $0x43c65a,%esi
  404670:	31 c0                	xor    %eax,%eax
  404672:	e8 d9 70 01 00       	callq  41b750 <error+0x197d1>
  404677:	83 7c 24 64 00       	cmpl   $0x0,0x64(%rsp)
  40467c:	74 11                	je     40468f <error+0x2710>
  40467e:	48 89 c7             	mov    %rax,%rdi
  404681:	31 d2                	xor    %edx,%edx
  404683:	be 61 c6 43 00       	mov    $0x43c661,%esi
  404688:	31 c0                	xor    %eax,%eax
  40468a:	e8 c1 70 01 00       	callq  41b750 <error+0x197d1>
  40468f:	41 f7 c6 00 00 00 10 	test   $0x10000000,%r14d
  404696:	74 13                	je     4046ab <error+0x272c>
  404698:	48 89 c7             	mov    %rax,%rdi
  40469b:	31 d2                	xor    %edx,%edx
  40469d:	be 68 c6 43 00       	mov    $0x43c668,%esi
  4046a2:	31 c0                	xor    %eax,%eax
  4046a4:	e8 a7 70 01 00       	callq  41b750 <error+0x197d1>
  4046a9:	eb 42                	jmp    4046ed <error+0x276e>
  4046ab:	41 f7 c6 00 00 10 00 	test   $0x100000,%r14d
  4046b2:	74 13                	je     4046c7 <error+0x2748>
  4046b4:	48 89 c7             	mov    %rax,%rdi
  4046b7:	31 d2                	xor    %edx,%edx
  4046b9:	be 6f c6 43 00       	mov    $0x43c66f,%esi
  4046be:	31 c0                	xor    %eax,%eax
  4046c0:	e8 8b 70 01 00       	callq  41b750 <error+0x197d1>
  4046c5:	eb 26                	jmp    4046ed <error+0x276e>
  4046c7:	41 81 e6 00 00 08 00 	and    $0x80000,%r14d
  4046ce:	74 1d                	je     4046ed <error+0x276e>
  4046d0:	48 89 c7             	mov    %rax,%rdi
  4046d3:	31 d2                	xor    %edx,%edx
  4046d5:	be 79 c6 43 00       	mov    $0x43c679,%esi
  4046da:	31 c0                	xor    %eax,%eax
  4046dc:	e8 6f 70 01 00       	callq  41b750 <error+0x197d1>
  4046e1:	eb 0a                	jmp    4046ed <error+0x276e>
  4046e3:	b8 5b d2 41 00       	mov    $0x41d25b,%eax
  4046e8:	bb 91 e0 41 00       	mov    $0x41e091,%ebx
  4046ed:	4c 8b b4 24 80 00 00 	mov    0x80(%rsp),%r14
  4046f4:	00 
  4046f5:	48 89 04 24          	mov    %rax,(%rsp)
  4046f9:	41 b9 81 c6 43 00    	mov    $0x43c681,%r9d
  4046ff:	48 c7 44 24 08 00 00 	movq   $0x0,0x8(%rsp)
  404706:	00 00 
  404708:	49 89 d8             	mov    %rbx,%r8
  40470b:	b9 29 64 42 00       	mov    $0x426429,%ecx
  404710:	be 89 c5 43 00       	mov    $0x43c589,%esi
  404715:	48 89 ef             	mov    %rbp,%rdi
  404718:	31 c0                	xor    %eax,%eax
  40471a:	49 8b 16             	mov    (%r14),%rdx
  40471d:	e8 2e 70 01 00       	callq  41b750 <error+0x197d1>
  404722:	eb 02                	jmp    404726 <error+0x27a7>
  404724:	31 c0                	xor    %eax,%eax
  404726:	48 81 c4 d8 00 00 00 	add    $0xd8,%rsp
  40472d:	5b                   	pop    %rbx
  40472e:	5d                   	pop    %rbp
  40472f:	41 5c                	pop    %r12
  404731:	41 5d                	pop    %r13
  404733:	41 5e                	pop    %r14
  404735:	41 5f                	pop    %r15
  404737:	c3                   	retq   
  404738:	48 89 e8             	mov    %rbp,%rax
  40473b:	e9 b4 f5 ff ff       	jmpq   403cf4 <error+0x1d75>
  404740:	53                   	push   %rbx
  404741:	49 89 ca             	mov    %rcx,%r10
  404744:	48 8b 0e             	mov    (%rsi),%rcx
  404747:	b8 0b 00 00 00       	mov    $0xb,%eax
  40474c:	48 39 d1             	cmp    %rdx,%rcx
  40474f:	0f 84 96 00 00 00    	je     4047eb <error+0x286c>
  404755:	48 8d 41 01          	lea    0x1(%rcx),%rax
  404759:	41 81 e0 00 00 01 00 	and    $0x10000,%r8d
  404760:	49 83 f8 01          	cmp    $0x1,%r8
  404764:	48 89 06             	mov    %rax,(%rsi)
  404767:	19 c0                	sbb    %eax,%eax
  404769:	f7 d0                	not    %eax
  40476b:	83 e0 0b             	and    $0xb,%eax
  40476e:	4d 85 d2             	test   %r10,%r10
  404771:	74 13                	je     404786 <error+0x2807>
  404773:	0f b6 11             	movzbl (%rcx),%edx
  404776:	40 0f b6 ff          	movzbl %dil,%edi
  40477a:	41 0f be 3c 3a       	movsbl (%r10,%rdi,1),%edi
  40477f:	41 0f b6 34 12       	movzbl (%r10,%rdx,1),%esi
  404784:	eb 07                	jmp    40478d <error+0x280e>
  404786:	0f b6 31             	movzbl (%rcx),%esi
  404789:	40 0f be ff          	movsbl %dil,%edi
  40478d:	ba 01 00 00 00       	mov    $0x1,%edx
  404792:	eb 53                	jmp    4047e7 <error+0x2868>
  404794:	4d 85 d2             	test   %r10,%r10
  404797:	74 10                	je     4047a9 <error+0x282a>
  404799:	40 0f b6 cf          	movzbl %dil,%ecx
  40479d:	41 0f b6 04 0a       	movzbl (%r10,%rcx,1),%eax
  4047a2:	c1 f8 03             	sar    $0x3,%eax
  4047a5:	48 98                	cltq   
  4047a7:	eb 0a                	jmp    4047b3 <error+0x2834>
  4047a9:	48 89 f8             	mov    %rdi,%rax
  4047ac:	48 c1 e8 03          	shr    $0x3,%rax
  4047b0:	83 e0 1f             	and    $0x1f,%eax
  4047b3:	4d 85 d2             	test   %r10,%r10
  4047b6:	45 8a 04 01          	mov    (%r9,%rax,1),%r8b
  4047ba:	74 14                	je     4047d0 <error+0x2851>
  4047bc:	44 0f b6 df          	movzbl %dil,%r11d
  4047c0:	88 d3                	mov    %dl,%bl
  4047c2:	43 0f b6 0c 1a       	movzbl (%r10,%r11,1),%ecx
  4047c7:	83 e1 07             	and    $0x7,%ecx
  4047ca:	d3 e3                	shl    %cl,%ebx
  4047cc:	88 d9                	mov    %bl,%cl
  4047ce:	eb 0b                	jmp    4047db <error+0x285c>
  4047d0:	89 f9                	mov    %edi,%ecx
  4047d2:	88 d3                	mov    %dl,%bl
  4047d4:	83 e1 07             	and    $0x7,%ecx
  4047d7:	d3 e3                	shl    %cl,%ebx
  4047d9:	88 d9                	mov    %bl,%cl
  4047db:	44 09 c1             	or     %r8d,%ecx
  4047de:	83 c7 01             	add    $0x1,%edi
  4047e1:	41 88 0c 01          	mov    %cl,(%r9,%rax,1)
  4047e5:	31 c0                	xor    %eax,%eax
  4047e7:	39 f7                	cmp    %esi,%edi
  4047e9:	76 a9                	jbe    404794 <error+0x2815>
  4047eb:	5b                   	pop    %rbx
  4047ec:	c3                   	retq   
  4047ed:	41 54                	push   %r12
  4047ef:	55                   	push   %rbp
  4047f0:	48 89 fd             	mov    %rdi,%rbp
  4047f3:	53                   	push   %rbx
  4047f4:	48 89 d3             	mov    %rdx,%rbx
  4047f7:	48 83 ec 10          	sub    $0x10,%rsp
  4047fb:	48 8b 07             	mov    (%rdi),%rax
  4047fe:	48 89 44 24 08       	mov    %rax,0x8(%rsp)
  404803:	8a 10                	mov    (%rax),%dl
  404805:	48 8d 48 01          	lea    0x1(%rax),%rcx
  404809:	48 89 4c 24 08       	mov    %rcx,0x8(%rsp)
  40480e:	80 fa 0c             	cmp    $0xc,%dl
  404811:	77 24                	ja     404837 <error+0x28b8>
  404813:	80 fa 09             	cmp    $0x9,%dl
  404816:	0f 83 da 00 00 00    	jae    4048f6 <error+0x2977>
  40481c:	80 fa 06             	cmp    $0x6,%dl
  40481f:	74 39                	je     40485a <error+0x28db>
  404821:	80 fa 08             	cmp    $0x8,%dl
  404824:	0f 84 c2 00 00 00    	je     4048ec <error+0x296d>
  40482a:	84 d2                	test   %dl,%dl
  40482c:	0f 84 c4 00 00 00    	je     4048f6 <error+0x2977>
  404832:	e9 cc 00 00 00       	jmpq   404903 <error+0x2984>
  404837:	80 fa 15             	cmp    $0x15,%dl
  40483a:	74 74                	je     4048b0 <error+0x2931>
  40483c:	77 0b                	ja     404849 <error+0x28ca>
  40483e:	80 fa 0d             	cmp    $0xd,%dl
  404841:	0f 85 bc 00 00 00    	jne    404903 <error+0x2984>
  404847:	eb 49                	jmp    404892 <error+0x2913>
  404849:	83 ea 1a             	sub    $0x1a,%edx
  40484c:	80 fa 03             	cmp    $0x3,%dl
  40484f:	0f 87 ae 00 00 00    	ja     404903 <error+0x2984>
  404855:	e9 9c 00 00 00       	jmpq   4048f6 <error+0x2977>
  40485a:	44 0f b6 60 01       	movzbl 0x1(%rax),%r12d
  40485f:	48 8d 7c 24 08       	lea    0x8(%rsp),%rdi
  404864:	48 89 da             	mov    %rbx,%rdx
  404867:	e8 0d 01 00 00       	callq  404979 <error+0x29fa>
  40486c:	4d 63 e4             	movslq %r12d,%r12
  40486f:	4a 8d 0c e3          	lea    (%rbx,%r12,8),%rcx
  404873:	8a 11                	mov    (%rcx),%dl
  404875:	88 d3                	mov    %dl,%bl
  404877:	83 e3 03             	and    $0x3,%ebx
  40487a:	80 fb 03             	cmp    $0x3,%bl
  40487d:	75 0d                	jne    40488c <error+0x290d>
  40487f:	40 88 c6             	mov    %al,%sil
  404882:	83 e2 fc             	and    $0xfffffffffffffffc,%edx
  404885:	83 e6 03             	and    $0x3,%esi
  404888:	09 f2                	or     %esi,%edx
  40488a:	88 11                	mov    %dl,(%rcx)
  40488c:	84 c0                	test   %al,%al
  40488e:	75 66                	jne    4048f6 <error+0x2977>
  404890:	eb 71                	jmp    404903 <error+0x2984>
  404892:	0f be 51 01          	movsbl 0x1(%rcx),%edx
  404896:	0f b6 78 01          	movzbl 0x1(%rax),%edi
  40489a:	c1 e2 08             	shl    $0x8,%edx
  40489d:	01 fa                	add    %edi,%edx
  40489f:	78 62                	js     404903 <error+0x2984>
  4048a1:	48 63 d2             	movslq %edx,%rdx
  4048a4:	48 8d 44 10 03       	lea    0x3(%rax,%rdx,1),%rax
  4048a9:	48 89 44 24 08       	mov    %rax,0x8(%rsp)
  4048ae:	eb 46                	jmp    4048f6 <error+0x2977>
  4048b0:	48 8d 50 03          	lea    0x3(%rax),%rdx
  4048b4:	48 89 54 24 08       	mov    %rdx,0x8(%rsp)
  4048b9:	44 0f be 42 01       	movsbl 0x1(%rdx),%r8d
  4048be:	44 0f b6 48 03       	movzbl 0x3(%rax),%r9d
  4048c3:	41 c1 e0 08          	shl    $0x8,%r8d
  4048c7:	45 01 c8             	add    %r9d,%r8d
  4048ca:	75 37                	jne    404903 <error+0x2984>
  4048cc:	48 89 4c 24 08       	mov    %rcx,0x8(%rsp)
  4048d1:	44 0f b6 50 01       	movzbl 0x1(%rax),%r10d
  4048d6:	0f be 41 01          	movsbl 0x1(%rcx),%eax
  4048da:	c1 e0 08             	shl    $0x8,%eax
  4048dd:	44 01 d0             	add    %r10d,%eax
  4048e0:	48 98                	cltq   
  4048e2:	48 01 c2             	add    %rax,%rdx
  4048e5:	48 89 54 24 08       	mov    %rdx,0x8(%rsp)
  4048ea:	eb 0a                	jmp    4048f6 <error+0x2977>
  4048ec:	0f b6 48 01          	movzbl 0x1(%rax),%ecx
  4048f0:	f6 04 cb 03          	testb  $0x3,(%rbx,%rcx,8)
  4048f4:	74 0d                	je     404903 <error+0x2984>
  4048f6:	4c 8b 5c 24 08       	mov    0x8(%rsp),%r11
  4048fb:	b0 01                	mov    $0x1,%al
  4048fd:	4c 89 5d 00          	mov    %r11,0x0(%rbp)
  404901:	eb 02                	jmp    404905 <error+0x2986>
  404903:	31 c0                	xor    %eax,%eax
  404905:	48 83 c4 10          	add    $0x10,%rsp
  404909:	5b                   	pop    %rbx
  40490a:	5d                   	pop    %rbp
  40490b:	41 5c                	pop    %r12
  40490d:	c3                   	retq   
  40490e:	41 54                	push   %r12
  404910:	49 89 d4             	mov    %rdx,%r12
  404913:	55                   	push   %rbp
  404914:	53                   	push   %rbx
  404915:	48 89 f3             	mov    %rsi,%rbx
  404918:	48 83 ec 10          	sub    $0x10,%rsp
  40491c:	48 89 7c 24 08       	mov    %rdi,0x8(%rsp)
  404921:	48 8d 6c 24 08       	lea    0x8(%rsp),%rbp
  404926:	eb 3c                	jmp    404964 <error+0x29e5>
  404928:	80 38 0f             	cmpb   $0xf,(%rax)
  40492b:	75 25                	jne    404952 <error+0x29d3>
  40492d:	48 8d 48 01          	lea    0x1(%rax),%rcx
  404931:	48 89 4c 24 08       	mov    %rcx,0x8(%rsp)
  404936:	0f be 79 01          	movsbl 0x1(%rcx),%edi
  40493a:	0f b6 70 01          	movzbl 0x1(%rax),%esi
  40493e:	c1 e7 08             	shl    $0x8,%edi
  404941:	01 f7                	add    %esi,%edi
  404943:	48 63 d7             	movslq %edi,%rdx
  404946:	48 8d 44 10 03       	lea    0x3(%rax,%rdx,1),%rax
  40494b:	48 89 44 24 08       	mov    %rax,0x8(%rsp)
  404950:	eb 12                	jmp    404964 <error+0x29e5>
  404952:	4c 89 e2             	mov    %r12,%rdx
  404955:	48 89 de             	mov    %rbx,%rsi
  404958:	48 89 ef             	mov    %rbp,%rdi
  40495b:	e8 8d fe ff ff       	callq  4047ed <error+0x286e>
  404960:	84 c0                	test   %al,%al
  404962:	74 0c                	je     404970 <error+0x29f1>
  404964:	48 8b 44 24 08       	mov    0x8(%rsp),%rax
  404969:	48 39 d8             	cmp    %rbx,%rax
  40496c:	72 ba                	jb     404928 <error+0x29a9>
  40496e:	b0 01                	mov    $0x1,%al
  404970:	48 83 c4 10          	add    $0x10,%rsp
  404974:	5b                   	pop    %rbx
  404975:	5d                   	pop    %rbp
  404976:	41 5c                	pop    %r12
  404978:	c3                   	retq   
  404979:	41 56                	push   %r14
  40497b:	41 55                	push   %r13
  40497d:	41 54                	push   %r12
  40497f:	49 89 f4             	mov    %rsi,%r12
  404982:	55                   	push   %rbp
  404983:	48 89 fd             	mov    %rdi,%rbp
  404986:	53                   	push   %rbx
  404987:	48 89 d3             	mov    %rdx,%rbx
  40498a:	48 83 ec 10          	sub    $0x10,%rsp
  40498e:	48 8b 07             	mov    (%rdi),%rax
  404991:	4c 8d 74 24 08       	lea    0x8(%rsp),%r14
  404996:	48 83 c0 02          	add    $0x2,%rax
  40499a:	48 89 44 24 08       	mov    %rax,0x8(%rsp)
  40499f:	e9 f0 00 00 00       	jmpq   404a94 <error+0x2b15>
  4049a4:	8a 10                	mov    (%rax),%dl
  4049a6:	80 fa 07             	cmp    $0x7,%dl
  4049a9:	0f 84 c7 00 00 00    	je     404a76 <error+0x2af7>
  4049af:	80 fa 0f             	cmp    $0xf,%dl
  4049b2:	0f 85 ca 00 00 00    	jne    404a82 <error+0x2b03>
  4049b8:	48 8d 50 01          	lea    0x1(%rax),%rdx
  4049bc:	48 89 54 24 08       	mov    %rdx,0x8(%rsp)
  4049c1:	0f be 52 01          	movsbl 0x1(%rdx),%edx
  4049c5:	44 0f b6 68 01       	movzbl 0x1(%rax),%r13d
  4049ca:	48 83 c0 03          	add    $0x3,%rax
  4049ce:	48 89 44 24 08       	mov    %rax,0x8(%rsp)
  4049d3:	c1 e2 08             	shl    $0x8,%edx
  4049d6:	44 01 ea             	add    %r13d,%edx
  4049d9:	79 58                	jns    404a33 <error+0x2ab4>
  4049db:	e9 b4 00 00 00       	jmpq   404a94 <error+0x2b15>
  4049e0:	48 89 da             	mov    %rbx,%rdx
  4049e3:	e8 26 ff ff ff       	callq  40490e <error+0x298f>
  4049e8:	84 c0                	test   %al,%al
  4049ea:	0f 84 b2 00 00 00    	je     404aa2 <error+0x2b23>
  4049f0:	4c 89 e8             	mov    %r13,%rax
  4049f3:	48 03 44 24 08       	add    0x8(%rsp),%rax
  4049f8:	48 89 44 24 08       	mov    %rax,0x8(%rsp)
  4049fd:	80 38 0f             	cmpb   $0xf,(%rax)
  404a00:	75 43                	jne    404a45 <error+0x2ac6>
  404a02:	4c 8d 40 01          	lea    0x1(%rax),%r8
  404a06:	48 8d 48 03          	lea    0x3(%rax),%rcx
  404a0a:	4c 89 44 24 08       	mov    %r8,0x8(%rsp)
  404a0f:	41 0f be 50 01       	movsbl 0x1(%r8),%edx
  404a14:	0f b6 78 01          	movzbl 0x1(%rax),%edi
  404a18:	48 89 4c 24 08       	mov    %rcx,0x8(%rsp)
  404a1d:	c1 e2 08             	shl    $0x8,%edx
  404a20:	01 fa                	add    %edi,%edx
  404a22:	48 63 f2             	movslq %edx,%rsi
  404a25:	80 7c 31 fd 0e       	cmpb   $0xe,-0x3(%rcx,%rsi,1)
  404a2a:	74 07                	je     404a33 <error+0x2ab4>
  404a2c:	48 89 44 24 08       	mov    %rax,0x8(%rsp)
  404a31:	eb 12                	jmp    404a45 <error+0x2ac6>
  404a33:	48 8b 7c 24 08       	mov    0x8(%rsp),%rdi
  404a38:	4c 63 ea             	movslq %edx,%r13
  404a3b:	4a 8d 74 2f fd       	lea    -0x3(%rdi,%r13,1),%rsi
  404a40:	80 3e 0e             	cmpb   $0xe,(%rsi)
  404a43:	74 9b                	je     4049e0 <error+0x2a61>
  404a45:	48 8b 7c 24 08       	mov    0x8(%rsp),%rdi
  404a4a:	48 89 da             	mov    %rbx,%rdx
  404a4d:	44 0f be 5f ff       	movsbl -0x1(%rdi),%r11d
  404a52:	44 0f b6 57 fe       	movzbl -0x2(%rdi),%r10d
  404a57:	41 c1 e3 08          	shl    $0x8,%r11d
  404a5b:	47 8d 0c 13          	lea    (%r11,%r10,1),%r9d
  404a5f:	4d 63 e9             	movslq %r9d,%r13
  404a62:	4a 8d 34 2f          	lea    (%rdi,%r13,1),%rsi
  404a66:	e8 a3 fe ff ff       	callq  40490e <error+0x298f>
  404a6b:	84 c0                	test   %al,%al
  404a6d:	74 33                	je     404aa2 <error+0x2b23>
  404a6f:	4c 01 6c 24 08       	add    %r13,0x8(%rsp)
  404a74:	eb 1e                	jmp    404a94 <error+0x2b15>
  404a76:	48 83 c0 02          	add    $0x2,%rax
  404a7a:	48 89 45 00          	mov    %rax,0x0(%rbp)
  404a7e:	b0 01                	mov    $0x1,%al
  404a80:	eb 22                	jmp    404aa4 <error+0x2b25>
  404a82:	48 89 da             	mov    %rbx,%rdx
  404a85:	4c 89 e6             	mov    %r12,%rsi
  404a88:	4c 89 f7             	mov    %r14,%rdi
  404a8b:	e8 5d fd ff ff       	callq  4047ed <error+0x286e>
  404a90:	84 c0                	test   %al,%al
  404a92:	74 0e                	je     404aa2 <error+0x2b23>
  404a94:	48 8b 44 24 08       	mov    0x8(%rsp),%rax
  404a99:	4c 39 e0             	cmp    %r12,%rax
  404a9c:	0f 82 02 ff ff ff    	jb     4049a4 <error+0x2a25>
  404aa2:	31 c0                	xor    %eax,%eax
  404aa4:	48 83 c4 10          	add    $0x10,%rsp
  404aa8:	5b                   	pop    %rbx
  404aa9:	5d                   	pop    %rbp
  404aaa:	41 5c                	pop    %r12
  404aac:	41 5d                	pop    %r13
  404aae:	41 5e                	pop    %r14
  404ab0:	c3                   	retq   
  404ab1:	48 8b 05 e0 c1 23 00 	mov    0x23c1e0(%rip),%rax        # 640c98 <stdout+0xb78>
  404ab8:	48 89 3d d9 c1 23 00 	mov    %rdi,0x23c1d9(%rip)        # 640c98 <stdout+0xb78>
  404abf:	c3                   	retq   
  404ac0:	85 d2                	test   %edx,%edx
  404ac2:	8a 47 38             	mov    0x38(%rdi),%al
  404ac5:	74 14                	je     404adb <error+0x2b5c>
  404ac7:	83 e0 f9             	and    $0xfffffffffffffff9,%eax
  404aca:	83 c8 02             	or     $0x2,%eax
  404acd:	88 47 38             	mov    %al,0x38(%rdi)
  404ad0:	89 16                	mov    %edx,(%rsi)
  404ad2:	48 89 4e 08          	mov    %rcx,0x8(%rsi)
  404ad6:	4c 89 46 10          	mov    %r8,0x10(%rsi)
  404ada:	c3                   	retq   
  404adb:	83 e0 f9             	and    $0xfffffffffffffff9,%eax
  404ade:	88 47 38             	mov    %al,0x38(%rdi)
  404ae1:	c7 06 00 00 00 00    	movl   $0x0,(%rsi)
  404ae7:	48 c7 46 10 00 00 00 	movq   $0x0,0x10(%rsi)
  404aee:	00 
  404aef:	48 c7 46 08 00 00 00 	movq   $0x0,0x8(%rsi)
  404af6:	00 
  404af7:	c3                   	retq   
  404af8:	53                   	push   %rbx
  404af9:	48 89 fb             	mov    %rdi,%rbx
  404afc:	48 8b 3f             	mov    (%rdi),%rdi
  404aff:	48 85 ff             	test   %rdi,%rdi
  404b02:	74 05                	je     404b09 <error+0x2b8a>
  404b04:	e8 37 d0 ff ff       	callq  401b40 <free@plt>
  404b09:	48 8b 7b 20          	mov    0x20(%rbx),%rdi
  404b0d:	48 c7 03 00 00 00 00 	movq   $0x0,(%rbx)
  404b14:	48 c7 43 08 00 00 00 	movq   $0x0,0x8(%rbx)
  404b1b:	00 
  404b1c:	48 c7 43 10 00 00 00 	movq   $0x0,0x10(%rbx)
  404b23:	00 
  404b24:	48 85 ff             	test   %rdi,%rdi
  404b27:	74 05                	je     404b2e <error+0x2baf>
  404b29:	e8 12 d0 ff ff       	callq  401b40 <free@plt>
  404b2e:	48 8b 7b 28          	mov    0x28(%rbx),%rdi
  404b32:	80 63 38 f7          	andb   $0xf7,0x38(%rbx)
  404b36:	48 c7 43 20 00 00 00 	movq   $0x0,0x20(%rbx)
  404b3d:	00 
  404b3e:	48 85 ff             	test   %rdi,%rdi
  404b41:	74 05                	je     404b48 <error+0x2bc9>
  404b43:	e8 f8 cf ff ff       	callq  401b40 <free@plt>
  404b48:	48 c7 43 28 00 00 00 	movq   $0x0,0x28(%rbx)
  404b4f:	00 
  404b50:	5b                   	pop    %rbx
  404b51:	c3                   	retq   
  404b52:	83 ff 10             	cmp    $0x10,%edi
  404b55:	49 89 d0             	mov    %rdx,%r8
  404b58:	53                   	push   %rbx
  404b59:	48 89 ca             	mov    %rcx,%rdx
  404b5c:	76 05                	jbe    404b63 <error+0x2be4>
  404b5e:	e8 2d ce ff ff       	callq  401990 <abort@plt>
  404b63:	48 63 df             	movslq %edi,%rbx
  404b66:	31 c0                	xor    %eax,%eax
  404b68:	48 83 c9 ff          	or     $0xffffffffffffffff,%rcx
  404b6c:	48 8b 34 dd 40 cb 43 	mov    0x43cb40(,%rbx,8),%rsi
  404b73:	00 
  404b74:	48 89 f7             	mov    %rsi,%rdi
  404b77:	f2 ae                	repnz scas %es:(%rdi),%al
  404b79:	48 85 d2             	test   %rdx,%rdx
  404b7c:	48 89 cb             	mov    %rcx,%rbx
  404b7f:	48 f7 d3             	not    %rbx
  404b82:	74 1e                	je     404ba2 <error+0x2c23>
  404b84:	48 39 d3             	cmp    %rdx,%rbx
  404b87:	76 11                	jbe    404b9a <error+0x2c1b>
  404b89:	48 83 ea 01          	sub    $0x1,%rdx
  404b8d:	4c 89 c7             	mov    %r8,%rdi
  404b90:	e8 ab d2 ff ff       	callq  401e40 <mempcpy@plt>
  404b95:	c6 00 00             	movb   $0x0,(%rax)
  404b98:	eb 08                	jmp    404ba2 <error+0x2c23>
  404b9a:	4c 89 c7             	mov    %r8,%rdi
  404b9d:	48 89 d9             	mov    %rbx,%rcx
  404ba0:	f3 a4                	rep movsb %ds:(%rsi),%es:(%rdi)
  404ba2:	48 89 d8             	mov    %rbx,%rax
  404ba5:	5b                   	pop    %rbx
  404ba6:	c3                   	retq   
  404ba7:	41 57                	push   %r15
  404ba9:	48 01 fe             	add    %rdi,%rsi
  404bac:	41 56                	push   %r14
  404bae:	41 55                	push   %r13
  404bb0:	41 54                	push   %r12
  404bb2:	55                   	push   %rbp
  404bb3:	53                   	push   %rbx
  404bb4:	48 89 cb             	mov    %rcx,%rbx
  404bb7:	48 81 ec 38 02 00 00 	sub    $0x238,%rsp
  404bbe:	48 89 bc 24 98 01 00 	mov    %rdi,0x198(%rsp)
  404bc5:	00 
  404bc6:	48 89 7c 24 60       	mov    %rdi,0x60(%rsp)
  404bcb:	bf 00 05 00 00       	mov    $0x500,%edi
  404bd0:	64 48 8b 04 25 28 00 	mov    %fs:0x28,%rax
  404bd7:	00 00 
  404bd9:	48 89 84 24 28 02 00 	mov    %rax,0x228(%rsp)
  404be0:	00 
  404be1:	31 c0                	xor    %eax,%eax
  404be3:	48 89 54 24 20       	mov    %rdx,0x20(%rsp)
  404be8:	48 89 74 24 30       	mov    %rsi,0x30(%rsp)
  404bed:	4c 8b 79 28          	mov    0x28(%rcx),%r15
  404bf1:	e8 7a ce ff ff       	callq  401a70 <malloc@plt>
  404bf6:	48 85 c0             	test   %rax,%rax
  404bf9:	48 89 c5             	mov    %rax,%rbp
  404bfc:	48 89 44 24 18       	mov    %rax,0x18(%rsp)
  404c01:	0f 84 ab 2b 00 00    	je     4077b2 <error+0x5833>
  404c07:	48 8b 54 24 20       	mov    0x20(%rsp),%rdx
  404c0c:	80 63 38 97          	andb   $0x97,0x38(%rbx)
  404c10:	83 3d e9 b9 23 00 00 	cmpl   $0x0,0x23b9e9(%rip)        # 640600 <stdout+0x4e0>
  404c17:	48 c7 43 10 00 00 00 	movq   $0x0,0x10(%rbx)
  404c1e:	00 
  404c1f:	48 c7 43 30 00 00 00 	movq   $0x0,0x30(%rbx)
  404c26:	00 
  404c27:	48 89 53 18          	mov    %rdx,0x18(%rbx)
  404c2b:	75 4c                	jne    404c79 <error+0x2cfa>
  404c2d:	be 20 06 64 00       	mov    $0x640620,%esi
  404c32:	31 c0                	xor    %eax,%eax
  404c34:	b9 40 00 00 00       	mov    $0x40,%ecx
  404c39:	48 89 f7             	mov    %rsi,%rdi
  404c3c:	f3 ab                	rep stos %eax,%es:(%rdi)
  404c3e:	e8 4d cf ff ff       	callq  401b90 <__ctype_b_loc@plt>
  404c43:	b9 20 06 64 00       	mov    $0x640620,%ecx
  404c48:	31 d2                	xor    %edx,%edx
  404c4a:	4c 8b 00             	mov    (%rax),%r8
  404c4d:	41 f6 04 10 08       	testb  $0x8,(%r8,%rdx,1)
  404c52:	74 03                	je     404c57 <error+0x2cd8>
  404c54:	c6 01 01             	movb   $0x1,(%rcx)
  404c57:	48 83 c2 02          	add    $0x2,%rdx
  404c5b:	48 83 c1 01          	add    $0x1,%rcx
  404c5f:	48 81 fa 00 02 00 00 	cmp    $0x200,%rdx
  404c66:	75 e2                	jne    404c4a <error+0x2ccb>
  404c68:	c6 05 10 ba 23 00 01 	movb   $0x1,0x23ba10(%rip)        # 64067f <stdout+0x55f>
  404c6f:	c7 05 87 b9 23 00 01 	movl   $0x1,0x23b987(%rip)        # 640600 <stdout+0x4e0>
  404c76:	00 00 00 
  404c79:	48 83 7b 08 00       	cmpq   $0x0,0x8(%rbx)
  404c7e:	75 44                	jne    404cc4 <error+0x2d45>
  404c80:	48 8b 3b             	mov    (%rbx),%rdi
  404c83:	48 85 ff             	test   %rdi,%rdi
  404c86:	74 0f                	je     404c97 <error+0x2d18>
  404c88:	be 20 00 00 00       	mov    $0x20,%esi
  404c8d:	e8 9e d1 ff ff       	callq  401e30 <realloc@plt>
  404c92:	48 89 03             	mov    %rax,(%rbx)
  404c95:	eb 0d                	jmp    404ca4 <error+0x2d25>
  404c97:	bf 20 00 00 00       	mov    $0x20,%edi
  404c9c:	e8 cf cd ff ff       	callq  401a70 <malloc@plt>
  404ca1:	48 89 03             	mov    %rax,(%rbx)
  404ca4:	48 83 3b 00          	cmpq   $0x0,(%rbx)
  404ca8:	75 12                	jne    404cbc <error+0x2d3d>
  404caa:	48 89 ef             	mov    %rbp,%rdi
  404cad:	e8 8e ce ff ff       	callq  401b40 <free@plt>
  404cb2:	b8 0c 00 00 00       	mov    $0xc,%eax
  404cb7:	e9 09 2b 00 00       	jmpq   4077c5 <error+0x5846>
  404cbc:	48 c7 43 08 20 00 00 	movq   $0x20,0x8(%rbx)
  404cc3:	00 
  404cc4:	48 8b 74 24 20       	mov    0x20(%rsp),%rsi
  404cc9:	48 8b 44 24 20       	mov    0x20(%rsp),%rax
  404cce:	48 8b 7c 24 20       	mov    0x20(%rsp),%rdi
  404cd3:	48 8b 4c 24 20       	mov    0x20(%rsp),%rcx
  404cd8:	4c 8b 74 24 20       	mov    0x20(%rsp),%r14
  404cdd:	4c 8b 6c 24 20       	mov    0x20(%rsp),%r13
  404ce2:	83 e6 08             	and    $0x8,%esi
  404ce5:	25 00 20 00 00       	and    $0x2000,%eax
  404cea:	4c 8b 64 24 20       	mov    0x20(%rsp),%r12
  404cef:	81 e7 00 80 00 00    	and    $0x8000,%edi
  404cf5:	81 e1 02 04 00 00    	and    $0x402,%ecx
  404cfb:	48 89 b4 24 98 00 00 	mov    %rsi,0x98(%rsp)
  404d02:	00 
  404d03:	41 83 e6 20          	and    $0x20,%r14d
  404d07:	48 89 44 24 58       	mov    %rax,0x58(%rsp)
  404d0c:	48 89 bc 24 80 00 00 	mov    %rdi,0x80(%rsp)
  404d13:	00 
  404d14:	48 89 8c 24 50 01 00 	mov    %rcx,0x150(%rsp)
  404d1b:	00 
  404d1c:	4c 89 b4 24 48 01 00 	mov    %r14,0x148(%rsp)
  404d23:	00 
  404d24:	41 83 e5 10          	and    $0x10,%r13d
  404d28:	48 8b 6c 24 20       	mov    0x20(%rsp),%rbp
  404d2d:	4c 8b 5c 24 20       	mov    0x20(%rsp),%r11
  404d32:	41 83 e4 40          	and    $0x40,%r12d
  404d36:	4c 8b 54 24 20       	mov    0x20(%rsp),%r10
  404d3b:	4c 8b 4c 24 20       	mov    0x20(%rsp),%r9
  404d40:	4c 8b 44 24 20       	mov    0x20(%rsp),%r8
  404d45:	48 8b 74 24 20       	mov    0x20(%rsp),%rsi
  404d4a:	48 8b 44 24 20       	mov    0x20(%rsp),%rax
  404d4f:	48 8b 7c 24 20       	mov    0x20(%rsp),%rdi
  404d54:	83 e5 02             	and    $0x2,%ebp
  404d57:	48 8b 4c 24 20       	mov    0x20(%rsp),%rcx
  404d5c:	4c 8b 74 24 20       	mov    0x20(%rsp),%r14
  404d61:	41 81 e3 00 01 00 00 	and    $0x100,%r11d
  404d68:	41 81 e2 00 08 00 00 	and    $0x800,%r10d
  404d6f:	41 81 e1 00 12 00 00 	and    $0x1200,%r9d
  404d76:	41 81 e0 00 00 02 00 	and    $0x20000,%r8d
  404d7d:	81 e6 00 84 00 00    	and    $0x8400,%esi
  404d83:	25 00 00 08 00       	and    $0x80000,%eax
  404d88:	81 e7 00 40 00 00    	and    $0x4000,%edi
  404d8e:	41 81 e6 00 10 00 00 	and    $0x1000,%r14d
  404d95:	81 e1 00 04 00 00    	and    $0x400,%ecx
  404d9b:	48 8b 13             	mov    (%rbx),%rdx
  404d9e:	4c 89 ac 24 e0 00 00 	mov    %r13,0xe0(%rsp)
  404da5:	00 
  404da6:	4c 89 a4 24 40 01 00 	mov    %r12,0x140(%rsp)
  404dad:	00 
  404dae:	48 89 ac 24 90 00 00 	mov    %rbp,0x90(%rsp)
  404db5:	00 
  404db6:	4c 89 9c 24 38 01 00 	mov    %r11,0x138(%rsp)
  404dbd:	00 
  404dbe:	4c 89 94 24 28 01 00 	mov    %r10,0x128(%rsp)
  404dc5:	00 
  404dc6:	4c 89 8c 24 d8 00 00 	mov    %r9,0xd8(%rsp)
  404dcd:	00 
  404dce:	4c 89 84 24 d0 00 00 	mov    %r8,0xd0(%rsp)
  404dd5:	00 
  404dd6:	48 89 b4 24 20 01 00 	mov    %rsi,0x120(%rsp)
  404ddd:	00 
  404dde:	48 89 44 24 40       	mov    %rax,0x40(%rsp)
  404de3:	48 89 bc 24 00 01 00 	mov    %rdi,0x100(%rsp)
  404dea:	00 
  404deb:	48 89 8c 24 18 01 00 	mov    %rcx,0x118(%rsp)
  404df2:	00 
  404df3:	4c 89 b4 24 88 00 00 	mov    %r14,0x88(%rsp)
  404dfa:	00 
  404dfb:	49 89 d6             	mov    %rdx,%r14
  404dfe:	4c 8b 6c 24 20       	mov    0x20(%rsp),%r13
  404e03:	4c 8b 64 24 20       	mov    0x20(%rsp),%r12
  404e08:	48 8b 6c 24 20       	mov    0x20(%rsp),%rbp
  404e0d:	4c 8b 5c 24 60       	mov    0x60(%rsp),%r11
  404e12:	4c 8b 54 24 20       	mov    0x20(%rsp),%r10
  404e17:	44 8a 4c 24 20       	mov    0x20(%rsp),%r9b
  404e1c:	41 81 e5 20 00 20 00 	and    $0x200020,%r13d
  404e23:	41 81 e4 00 00 20 00 	and    $0x200000,%r12d
  404e2a:	c7 44 24 74 20 00 00 	movl   $0x20,0x74(%rsp)
  404e31:	00 
  404e32:	81 e5 00 02 00 00    	and    $0x200,%ebp
  404e38:	49 83 c3 01          	add    $0x1,%r11
  404e3c:	4c 89 ac 24 10 01 00 	mov    %r13,0x110(%rsp)
  404e43:	00 
  404e44:	41 83 e2 04          	and    $0x4,%r10d
  404e48:	41 83 e1 01          	and    $0x1,%r9d
  404e4c:	4c 89 a4 24 08 01 00 	mov    %r12,0x108(%rsp)
  404e53:	00 
  404e54:	48 89 ac 24 f8 00 00 	mov    %rbp,0xf8(%rsp)
  404e5b:	00 
  404e5c:	c7 44 24 38 00 00 00 	movl   $0x0,0x38(%rsp)
  404e63:	00 
  404e64:	45 31 e4             	xor    %r12d,%r12d
  404e67:	c7 44 24 4c 00 00 00 	movl   $0x0,0x4c(%rsp)
  404e6e:	00 
  404e6f:	31 ed                	xor    %ebp,%ebp
  404e71:	45 31 ed             	xor    %r13d,%r13d
  404e74:	4c 89 9c 24 58 01 00 	mov    %r11,0x158(%rsp)
  404e7b:	00 
  404e7c:	4c 89 94 24 60 01 00 	mov    %r10,0x160(%rsp)
  404e83:	00 
  404e84:	44 88 8c 24 6f 01 00 	mov    %r9b,0x16f(%rsp)
  404e8b:	00 
  404e8c:	e9 3f 28 00 00       	jmpq   4076d0 <error+0x5751>
  404e91:	48 8d 46 01          	lea    0x1(%rsi),%rax
  404e95:	4d 85 ff             	test   %r15,%r15
  404e98:	8a 0e                	mov    (%rsi),%cl
  404e9a:	48 89 84 24 98 01 00 	mov    %rax,0x198(%rsp)
  404ea1:	00 
  404ea2:	74 08                	je     404eac <error+0x2f2d>
  404ea4:	44 0f b6 c1          	movzbl %cl,%r8d
  404ea8:	43 8a 0c 07          	mov    (%r15,%r8,1),%cl
  404eac:	80 f9 2e             	cmp    $0x2e,%cl
  404eaf:	0f 84 83 00 00 00    	je     404f38 <error+0x2fb9>
  404eb5:	77 42                	ja     404ef9 <error+0x2f7a>
  404eb7:	80 f9 29             	cmp    $0x29,%cl
  404eba:	0f 84 d1 13 00 00    	je     406291 <error+0x4312>
  404ec0:	77 20                	ja     404ee2 <error+0x2f63>
  404ec2:	80 f9 24             	cmp    $0x24,%cl
  404ec5:	0f 84 b3 01 00 00    	je     40507e <error+0x30ff>
  404ecb:	80 f9 28             	cmp    $0x28,%cl
  404ece:	0f 84 ac 13 00 00    	je     406280 <error+0x4301>
  404ed4:	80 f9 0a             	cmp    $0xa,%cl
  404ed7:	0f 85 e6 25 00 00    	jne    4074c3 <error+0x5544>
  404edd:	e9 c0 13 00 00       	jmpq   4062a2 <error+0x4323>
  404ee2:	80 f9 2a             	cmp    $0x2a,%cl
  404ee5:	0f 84 f7 02 00 00    	je     4051e2 <error+0x3263>
  404eeb:	80 f9 2b             	cmp    $0x2b,%cl
  404eee:	0f 85 cf 25 00 00    	jne    4074c3 <error+0x5544>
  404ef4:	e9 da 02 00 00       	jmpq   4051d3 <error+0x3254>
  404ef9:	80 f9 5c             	cmp    $0x5c,%cl
  404efc:	0f 84 df 13 00 00    	je     4062e1 <error+0x4362>
  404f02:	77 17                	ja     404f1b <error+0x2f9c>
  404f04:	80 f9 3f             	cmp    $0x3f,%cl
  404f07:	0f 84 c6 02 00 00    	je     4051d3 <error+0x3254>
  404f0d:	80 f9 5b             	cmp    $0x5b,%cl
  404f10:	0f 85 ad 25 00 00    	jne    4074c3 <error+0x5544>
  404f16:	e9 24 07 00 00       	jmpq   40563f <error+0x36c0>
  404f1b:	80 f9 7b             	cmp    $0x7b,%cl
  404f1e:	0f 84 a6 13 00 00    	je     4062ca <error+0x434b>
  404f24:	80 f9 7c             	cmp    $0x7c,%cl
  404f27:	0f 84 89 13 00 00    	je     4062b6 <error+0x4337>
  404f2d:	80 f9 5e             	cmp    $0x5e,%cl
  404f30:	0f 85 8d 25 00 00    	jne    4074c3 <error+0x5544>
  404f36:	eb 11                	jmp    404f49 <error+0x2fca>
  404f38:	4c 89 f9             	mov    %r15,%rcx
  404f3b:	48 89 d5             	mov    %rdx,%rbp
  404f3e:	4d 89 f7             	mov    %r14,%r15
  404f41:	49 89 de             	mov    %rbx,%r14
  404f44:	e9 c4 06 00 00       	jmpq   40560d <error+0x368e>
  404f49:	48 3b 84 24 58 01 00 	cmp    0x158(%rsp),%rax
  404f50:	00 
  404f51:	0f 84 ec 00 00 00    	je     405043 <error+0x30c4>
  404f57:	48 83 bc 24 98 00 00 	cmpq   $0x0,0x98(%rsp)
  404f5e:	00 00 
  404f60:	0f 85 dd 00 00 00    	jne    405043 <error+0x30c4>
  404f66:	48 8d 78 fe          	lea    -0x2(%rax),%rdi
  404f6a:	31 f6                	xor    %esi,%esi
  404f6c:	48 39 7c 24 60       	cmp    %rdi,0x60(%rsp)
  404f71:	73 0a                	jae    404f7d <error+0x2ffe>
  404f73:	31 f6                	xor    %esi,%esi
  404f75:	80 7f ff 5c          	cmpb   $0x5c,-0x1(%rdi)
  404f79:	40 0f 94 c6          	sete   %sil
  404f7d:	40 8a 78 fe          	mov    -0x2(%rax),%dil
  404f81:	40 80 ff 28          	cmp    $0x28,%dil
  404f85:	75 13                	jne    404f9a <error+0x301b>
  404f87:	48 83 7c 24 58 00    	cmpq   $0x0,0x58(%rsp)
  404f8d:	41 0f 95 c1          	setne  %r9b
  404f91:	41 09 f1             	or     %esi,%r9d
  404f94:	41 0f b6 c1          	movzbl %r9b,%eax
  404f98:	eb 1c                	jmp    404fb6 <error+0x3037>
  404f9a:	31 c0                	xor    %eax,%eax
  404f9c:	40 80 ff 7c          	cmp    $0x7c,%dil
  404fa0:	75 14                	jne    404fb6 <error+0x3037>
  404fa2:	48 83 bc 24 80 00 00 	cmpq   $0x0,0x80(%rsp)
  404fa9:	00 00 
  404fab:	41 0f 95 c2          	setne  %r10b
  404faf:	41 09 f2             	or     %esi,%r10d
  404fb2:	41 0f b6 c2          	movzbl %r10b,%eax
  404fb6:	85 c0                	test   %eax,%eax
  404fb8:	0f 85 85 00 00 00    	jne    405043 <error+0x30c4>
  404fbe:	e9 00 25 00 00       	jmpq   4074c3 <error+0x5544>
  404fc3:	48 81 fe 00 00 01 00 	cmp    $0x10000,%rsi
  404fca:	0f 84 e9 27 00 00    	je     4077b9 <error+0x583a>
  404fd0:	48 01 f6             	add    %rsi,%rsi
  404fd3:	41 bb 00 00 01 00    	mov    $0x10000,%r11d
  404fd9:	48 89 df             	mov    %rbx,%rdi
  404fdc:	48 81 fe 01 00 01 00 	cmp    $0x10001,%rsi
  404fe3:	48 89 14 24          	mov    %rdx,(%rsp)
  404fe7:	48 89 4c 24 08       	mov    %rcx,0x8(%rsp)
  404fec:	49 0f 43 f3          	cmovae %r11,%rsi
  404ff0:	49 89 76 08          	mov    %rsi,0x8(%r14)
  404ff4:	e8 37 ce ff ff       	callq  401e30 <realloc@plt>
  404ff9:	48 85 c0             	test   %rax,%rax
  404ffc:	49 89 06             	mov    %rax,(%r14)
  404fff:	48 8b 14 24          	mov    (%rsp),%rdx
  405003:	48 8b 4c 24 08       	mov    0x8(%rsp),%rcx
  405008:	0f 84 a4 27 00 00    	je     4077b2 <error+0x5833>
  40500e:	48 39 d8             	cmp    %rbx,%rax
  405011:	74 39                	je     40504c <error+0x30cd>
  405013:	29 d8                	sub    %ebx,%eax
  405015:	4d 85 e4             	test   %r12,%r12
  405018:	48 63 d8             	movslq %eax,%rbx
  40501b:	49 8d 34 1c          	lea    (%r12,%rbx,1),%rsi
  40501f:	48 8d 44 1d 00       	lea    0x0(%rbp,%rbx,1),%rax
  405024:	49 8d 7c 1d 00       	lea    0x0(%r13,%rbx,1),%rdi
  405029:	4c 0f 45 e6          	cmovne %rsi,%r12
  40502d:	48 85 ed             	test   %rbp,%rbp
  405030:	48 0f 45 e8          	cmovne %rax,%rbp
  405034:	4d 85 ed             	test   %r13,%r13
  405037:	4c 0f 45 ef          	cmovne %rdi,%r13
  40503b:	48 01 da             	add    %rbx,%rdx
  40503e:	49 01 df             	add    %rbx,%r15
  405041:	eb 09                	jmp    40504c <error+0x30cd>
  405043:	4c 89 f9             	mov    %r15,%rcx
  405046:	4d 89 f7             	mov    %r14,%r15
  405049:	49 89 de             	mov    %rbx,%r14
  40504c:	49 8b 1e             	mov    (%r14),%rbx
  40504f:	41 b9 01 00 00 00    	mov    $0x1,%r9d
  405055:	49 8b 76 08          	mov    0x8(%r14),%rsi
  405059:	49 29 d9             	sub    %rbx,%r9
  40505c:	4e 8d 04 0a          	lea    (%rdx,%r9,1),%r8
  405060:	49 39 f0             	cmp    %rsi,%r8
  405063:	0f 87 5a ff ff ff    	ja     404fc3 <error+0x3044>
  405069:	4c 89 f3             	mov    %r14,%rbx
  40506c:	c6 02 09             	movb   $0x9,(%rdx)
  40506f:	4d 89 fe             	mov    %r15,%r14
  405072:	48 83 c2 01          	add    $0x1,%rdx
  405076:	49 89 cf             	mov    %rcx,%r15
  405079:	e9 52 26 00 00       	jmpq   4076d0 <error+0x5751>
  40507e:	48 3b 44 24 30       	cmp    0x30(%rsp),%rax
  405083:	0f 84 0f 01 00 00    	je     405198 <error+0x3219>
  405089:	48 83 bc 24 98 00 00 	cmpq   $0x0,0x98(%rsp)
  405090:	00 00 
  405092:	0f 85 00 01 00 00    	jne    405198 <error+0x3219>
  405098:	40 8a 76 01          	mov    0x1(%rsi),%sil
  40509c:	40 80 fe 5c          	cmp    $0x5c,%sil
  4050a0:	40 0f 94 c7          	sete   %dil
  4050a4:	48 83 c0 01          	add    $0x1,%rax
  4050a8:	48 39 44 24 30       	cmp    %rax,0x30(%rsp)
  4050ad:	48 0f 46 84 24 98 00 	cmovbe 0x98(%rsp),%rax
  4050b4:	00 00 
  4050b6:	48 83 7c 24 58 00    	cmpq   $0x0,0x58(%rsp)
  4050bc:	74 08                	je     4050c6 <error+0x3147>
  4050be:	40 80 fe 29          	cmp    $0x29,%sil
  4050c2:	75 11                	jne    4050d5 <error+0x3156>
  4050c4:	eb 40                	jmp    405106 <error+0x3187>
  4050c6:	48 85 c0             	test   %rax,%rax
  4050c9:	74 0a                	je     4050d5 <error+0x3156>
  4050cb:	40 84 ff             	test   %dil,%dil
  4050ce:	74 05                	je     4050d5 <error+0x3156>
  4050d0:	80 38 29             	cmpb   $0x29,(%rax)
  4050d3:	74 31                	je     405106 <error+0x3187>
  4050d5:	48 83 bc 24 80 00 00 	cmpq   $0x0,0x80(%rsp)
  4050dc:	00 00 
  4050de:	74 0b                	je     4050eb <error+0x316c>
  4050e0:	31 c0                	xor    %eax,%eax
  4050e2:	40 80 fe 7c          	cmp    $0x7c,%sil
  4050e6:	0f 94 c0             	sete   %al
  4050e9:	eb 20                	jmp    40510b <error+0x318c>
  4050eb:	48 85 c0             	test   %rax,%rax
  4050ee:	74 05                	je     4050f5 <error+0x3176>
  4050f0:	40 84 ff             	test   %dil,%dil
  4050f3:	75 04                	jne    4050f9 <error+0x317a>
  4050f5:	31 c0                	xor    %eax,%eax
  4050f7:	eb 12                	jmp    40510b <error+0x318c>
  4050f9:	80 38 7c             	cmpb   $0x7c,(%rax)
  4050fc:	41 0f 94 c2          	sete   %r10b
  405100:	41 0f b6 c2          	movzbl %r10b,%eax
  405104:	eb 05                	jmp    40510b <error+0x318c>
  405106:	b8 01 00 00 00       	mov    $0x1,%eax
  40510b:	85 c0                	test   %eax,%eax
  40510d:	0f 85 85 00 00 00    	jne    405198 <error+0x3219>
  405113:	e9 ab 23 00 00       	jmpq   4074c3 <error+0x5544>
  405118:	48 81 fe 00 00 01 00 	cmp    $0x10000,%rsi
  40511f:	0f 84 94 26 00 00    	je     4077b9 <error+0x583a>
  405125:	48 01 f6             	add    %rsi,%rsi
  405128:	41 bb 00 00 01 00    	mov    $0x10000,%r11d
  40512e:	48 89 df             	mov    %rbx,%rdi
  405131:	48 81 fe 01 00 01 00 	cmp    $0x10001,%rsi
  405138:	48 89 14 24          	mov    %rdx,(%rsp)
  40513c:	48 89 4c 24 08       	mov    %rcx,0x8(%rsp)
  405141:	49 0f 43 f3          	cmovae %r11,%rsi
  405145:	49 89 76 08          	mov    %rsi,0x8(%r14)
  405149:	e8 e2 cc ff ff       	callq  401e30 <realloc@plt>
  40514e:	48 85 c0             	test   %rax,%rax
  405151:	49 89 06             	mov    %rax,(%r14)
  405154:	48 8b 14 24          	mov    (%rsp),%rdx
  405158:	48 8b 4c 24 08       	mov    0x8(%rsp),%rcx
  40515d:	0f 84 4f 26 00 00    	je     4077b2 <error+0x5833>
  405163:	48 39 d8             	cmp    %rbx,%rax
  405166:	74 39                	je     4051a1 <error+0x3222>
  405168:	29 d8                	sub    %ebx,%eax
  40516a:	4d 85 e4             	test   %r12,%r12
  40516d:	48 63 d8             	movslq %eax,%rbx
  405170:	49 8d 34 1c          	lea    (%r12,%rbx,1),%rsi
  405174:	48 8d 44 1d 00       	lea    0x0(%rbp,%rbx,1),%rax
  405179:	49 8d 7c 1d 00       	lea    0x0(%r13,%rbx,1),%rdi
  40517e:	4c 0f 45 e6          	cmovne %rsi,%r12
  405182:	48 85 ed             	test   %rbp,%rbp
  405185:	48 0f 45 e8          	cmovne %rax,%rbp
  405189:	4d 85 ed             	test   %r13,%r13
  40518c:	4c 0f 45 ef          	cmovne %rdi,%r13
  405190:	48 01 da             	add    %rbx,%rdx
  405193:	49 01 df             	add    %rbx,%r15
  405196:	eb 09                	jmp    4051a1 <error+0x3222>
  405198:	4c 89 f9             	mov    %r15,%rcx
  40519b:	4d 89 f7             	mov    %r14,%r15
  40519e:	49 89 de             	mov    %rbx,%r14
  4051a1:	49 8b 1e             	mov    (%r14),%rbx
  4051a4:	41 b9 01 00 00 00    	mov    $0x1,%r9d
  4051aa:	49 8b 76 08          	mov    0x8(%r14),%rsi
  4051ae:	49 29 d9             	sub    %rbx,%r9
  4051b1:	4e 8d 04 0a          	lea    (%rdx,%r9,1),%r8
  4051b5:	49 39 f0             	cmp    %rsi,%r8
  4051b8:	0f 87 5a ff ff ff    	ja     405118 <error+0x3199>
  4051be:	4c 89 f3             	mov    %r14,%rbx
  4051c1:	c6 02 0a             	movb   $0xa,(%rdx)
  4051c4:	4d 89 fe             	mov    %r15,%r14
  4051c7:	48 83 c2 01          	add    $0x1,%rdx
  4051cb:	49 89 cf             	mov    %rcx,%r15
  4051ce:	e9 fd 24 00 00       	jmpq   4076d0 <error+0x5751>
  4051d3:	48 83 bc 24 50 01 00 	cmpq   $0x0,0x150(%rsp)
  4051da:	00 00 
  4051dc:	0f 85 e1 22 00 00    	jne    4074c3 <error+0x5544>
  4051e2:	48 85 ed             	test   %rbp,%rbp
  4051e5:	75 1e                	jne    405205 <error+0x3286>
  4051e7:	48 83 bc 24 48 01 00 	cmpq   $0x0,0x148(%rsp)
  4051ee:	00 00 
  4051f0:	0f 85 00 18 00 00    	jne    4069f6 <error+0x4a77>
  4051f6:	48 83 bc 24 e0 00 00 	cmpq   $0x0,0xe0(%rsp)
  4051fd:	00 00 
  4051ff:	0f 84 be 22 00 00    	je     4074c3 <error+0x5544>
  405205:	4c 8b 8c 24 90 00 00 	mov    0x90(%rsp),%r9
  40520c:	00 
  40520d:	31 f6                	xor    %esi,%esi
  40520f:	45 31 c0             	xor    %r8d,%r8d
  405212:	80 f9 2b             	cmp    $0x2b,%cl
  405215:	48 8b 84 24 98 01 00 	mov    0x198(%rsp),%rax
  40521c:	00 
  40521d:	41 0f 95 c2          	setne  %r10b
  405221:	45 09 d0             	or     %r10d,%r8d
  405224:	80 f9 3f             	cmp    $0x3f,%cl
  405227:	0f 95 c1             	setne  %cl
  40522a:	09 ce                	or     %ecx,%esi
  40522c:	48 3b 44 24 30       	cmp    0x30(%rsp),%rax
  405231:	74 79                	je     4052ac <error+0x332d>
  405233:	48 8d 78 01          	lea    0x1(%rax),%rdi
  405237:	4d 85 ff             	test   %r15,%r15
  40523a:	8a 08                	mov    (%rax),%cl
  40523c:	48 89 bc 24 98 01 00 	mov    %rdi,0x198(%rsp)
  405243:	00 
  405244:	74 08                	je     40524e <error+0x32cf>
  405246:	44 0f b6 d9          	movzbl %cl,%r11d
  40524a:	43 8a 0c 1f          	mov    (%r15,%r11,1),%cl
  40524e:	80 f9 2a             	cmp    $0x2a,%cl
  405251:	74 bf                	je     405212 <error+0x3293>
  405253:	4d 85 c9             	test   %r9,%r9
  405256:	75 0a                	jne    405262 <error+0x32e3>
  405258:	80 f9 3f             	cmp    $0x3f,%cl
  40525b:	74 b5                	je     405212 <error+0x3293>
  40525d:	80 f9 2b             	cmp    $0x2b,%cl
  405260:	74 b0                	je     405212 <error+0x3293>
  405262:	80 f9 5c             	cmp    $0x5c,%cl
  405265:	75 3d                	jne    4052a4 <error+0x3325>
  405267:	4d 85 c9             	test   %r9,%r9
  40526a:	74 38                	je     4052a4 <error+0x3325>
  40526c:	48 3b 7c 24 30       	cmp    0x30(%rsp),%rdi
  405271:	0f 84 71 10 00 00    	je     4062e8 <error+0x4369>
  405277:	48 83 c7 01          	add    $0x1,%rdi
  40527b:	4d 85 ff             	test   %r15,%r15
  40527e:	8a 48 01             	mov    0x1(%rax),%cl
  405281:	48 89 bc 24 98 01 00 	mov    %rdi,0x198(%rsp)
  405288:	00 
  405289:	74 07                	je     405292 <error+0x3313>
  40528b:	0f b6 f9             	movzbl %cl,%edi
  40528e:	41 8a 0c 3f          	mov    (%r15,%rdi,1),%cl
  405292:	80 f9 3f             	cmp    $0x3f,%cl
  405295:	0f 84 77 ff ff ff    	je     405212 <error+0x3293>
  40529b:	80 f9 2b             	cmp    $0x2b,%cl
  40529e:	0f 84 6e ff ff ff    	je     405212 <error+0x3293>
  4052a4:	48 89 84 24 98 01 00 	mov    %rax,0x198(%rsp)
  4052ab:	00 
  4052ac:	48 85 ed             	test   %rbp,%rbp
  4052af:	0f 84 1b 24 00 00    	je     4076d0 <error+0x5751>
  4052b5:	31 c9                	xor    %ecx,%ecx
  4052b7:	40 84 f6             	test   %sil,%sil
  4052ba:	0f 84 24 01 00 00    	je     4053e4 <error+0x3465>
  4052c0:	eb 69                	jmp    40532b <error+0x33ac>
  4052c2:	48 81 fe 00 00 01 00 	cmp    $0x10000,%rsi
  4052c9:	0f 84 ea 24 00 00    	je     4077b9 <error+0x583a>
  4052cf:	48 01 f6             	add    %rsi,%rsi
  4052d2:	b8 00 00 01 00       	mov    $0x10000,%eax
  4052d7:	4c 89 ef             	mov    %r13,%rdi
  4052da:	48 81 fe 01 00 01 00 	cmp    $0x10001,%rsi
  4052e1:	48 89 14 24          	mov    %rdx,(%rsp)
  4052e5:	44 88 44 24 10       	mov    %r8b,0x10(%rsp)
  4052ea:	48 0f 43 f0          	cmovae %rax,%rsi
  4052ee:	48 89 73 08          	mov    %rsi,0x8(%rbx)
  4052f2:	e8 39 cb ff ff       	callq  401e30 <realloc@plt>
  4052f7:	48 85 c0             	test   %rax,%rax
  4052fa:	48 89 03             	mov    %rax,(%rbx)
  4052fd:	48 8b 14 24          	mov    (%rsp),%rdx
  405301:	44 8a 44 24 10       	mov    0x10(%rsp),%r8b
  405306:	0f 84 a6 24 00 00    	je     4077b2 <error+0x5833>
  40530c:	4c 39 e8             	cmp    %r13,%rax
  40530f:	74 1a                	je     40532b <error+0x33ac>
  405311:	44 29 e8             	sub    %r13d,%eax
  405314:	4d 85 e4             	test   %r12,%r12
  405317:	4c 63 e8             	movslq %eax,%r13
  40531a:	4b 8d 34 2c          	lea    (%r12,%r13,1),%rsi
  40531e:	4c 0f 45 e6          	cmovne %rsi,%r12
  405322:	4c 01 ea             	add    %r13,%rdx
  405325:	4d 01 ee             	add    %r13,%r14
  405328:	4c 01 ed             	add    %r13,%rbp
  40532b:	4c 8b 2b             	mov    (%rbx),%r13
  40532e:	48 8b 73 08          	mov    0x8(%rbx),%rsi
  405332:	41 b9 03 00 00 00    	mov    $0x3,%r9d
  405338:	4d 29 e9             	sub    %r13,%r9
  40533b:	49 01 d1             	add    %rdx,%r9
  40533e:	49 39 f1             	cmp    %rsi,%r9
  405341:	0f 87 7b ff ff ff    	ja     4052c2 <error+0x3343>
  405347:	4d 85 ff             	test   %r15,%r15
  40534a:	48 8b 84 24 98 01 00 	mov    0x198(%rsp),%rax
  405351:	00 
  405352:	74 11                	je     405365 <error+0x33e6>
  405354:	44 0f b6 50 fe       	movzbl -0x2(%rax),%r10d
  405359:	41 0f be 47 2e       	movsbl 0x2e(%r15),%eax
  40535e:	43 0f be 0c 17       	movsbl (%r15,%r10,1),%ecx
  405363:	eb 09                	jmp    40536e <error+0x33ef>
  405365:	0f be 48 fe          	movsbl -0x2(%rax),%ecx
  405369:	b8 2e 00 00 00       	mov    $0x2e,%eax
  40536e:	39 c1                	cmp    %eax,%ecx
  405370:	75 57                	jne    4053c9 <error+0x344a>
  405372:	45 84 c0             	test   %r8b,%r8b
  405375:	74 52                	je     4053c9 <error+0x344a>
  405377:	48 8b 84 24 98 01 00 	mov    0x198(%rsp),%rax
  40537e:	00 
  40537f:	48 3b 44 24 30       	cmp    0x30(%rsp),%rax
  405384:	73 43                	jae    4053c9 <error+0x344a>
  405386:	4d 85 ff             	test   %r15,%r15
  405389:	74 10                	je     40539b <error+0x341c>
  40538b:	44 0f b6 18          	movzbl (%rax),%r11d
  40538f:	41 0f be 47 0a       	movsbl 0xa(%r15),%eax
  405394:	43 0f be 0c 1f       	movsbl (%r15,%r11,1),%ecx
  405399:	eb 08                	jmp    4053a3 <error+0x3424>
  40539b:	0f be 08             	movsbl (%rax),%ecx
  40539e:	b8 0a 00 00 00       	mov    $0xa,%eax
  4053a3:	39 c1                	cmp    %eax,%ecx
  4053a5:	75 22                	jne    4053c9 <error+0x344a>
  4053a7:	48 83 bc 24 40 01 00 	cmpq   $0x0,0x140(%rsp)
  4053ae:	00 00 
  4053b0:	75 17                	jne    4053c9 <error+0x344a>
  4053b2:	89 e9                	mov    %ebp,%ecx
  4053b4:	c6 02 0d             	movb   $0xd,(%rdx)
  4053b7:	29 d1                	sub    %edx,%ecx
  4053b9:	83 e9 03             	sub    $0x3,%ecx
  4053bc:	88 4a 01             	mov    %cl,0x1(%rdx)
  4053bf:	c1 f9 08             	sar    $0x8,%ecx
  4053c2:	88 4a 02             	mov    %cl,0x2(%rdx)
  4053c5:	b1 01                	mov    $0x1,%cl
  4053c7:	eb 17                	jmp    4053e0 <error+0x3461>
  4053c9:	89 ef                	mov    %ebp,%edi
  4053cb:	c6 02 12             	movb   $0x12,(%rdx)
  4053ce:	31 c9                	xor    %ecx,%ecx
  4053d0:	29 d7                	sub    %edx,%edi
  4053d2:	83 ef 06             	sub    $0x6,%edi
  4053d5:	40 88 7a 01          	mov    %dil,0x1(%rdx)
  4053d9:	c1 ff 08             	sar    $0x8,%edi
  4053dc:	40 88 7a 02          	mov    %dil,0x2(%rdx)
  4053e0:	48 83 c2 03          	add    $0x3,%rdx
  4053e4:	49 89 d5             	mov    %rdx,%r13
  4053e7:	4c 89 fa             	mov    %r15,%rdx
  4053ea:	49 89 ef             	mov    %rbp,%r15
  4053ed:	48 89 dd             	mov    %rbx,%rbp
  4053f0:	eb 71                	jmp    405463 <error+0x34e4>
  4053f2:	48 81 fe 00 00 01 00 	cmp    $0x10000,%rsi
  4053f9:	0f 84 ba 23 00 00    	je     4077b9 <error+0x583a>
  4053ff:	48 01 f6             	add    %rsi,%rsi
  405402:	b8 00 00 01 00       	mov    $0x10000,%eax
  405407:	48 89 df             	mov    %rbx,%rdi
  40540a:	48 81 fe 01 00 01 00 	cmp    $0x10001,%rsi
  405411:	48 89 14 24          	mov    %rdx,(%rsp)
  405415:	88 4c 24 08          	mov    %cl,0x8(%rsp)
  405419:	48 0f 43 f0          	cmovae %rax,%rsi
  40541d:	44 88 44 24 10       	mov    %r8b,0x10(%rsp)
  405422:	48 89 75 08          	mov    %rsi,0x8(%rbp)
  405426:	e8 05 ca ff ff       	callq  401e30 <realloc@plt>
  40542b:	48 85 c0             	test   %rax,%rax
  40542e:	48 89 45 00          	mov    %rax,0x0(%rbp)
  405432:	48 8b 14 24          	mov    (%rsp),%rdx
  405436:	8a 4c 24 08          	mov    0x8(%rsp),%cl
  40543a:	44 8a 44 24 10       	mov    0x10(%rsp),%r8b
  40543f:	0f 84 6d 23 00 00    	je     4077b2 <error+0x5833>
  405445:	48 39 d8             	cmp    %rbx,%rax
  405448:	74 19                	je     405463 <error+0x34e4>
  40544a:	29 d8                	sub    %ebx,%eax
  40544c:	4d 85 e4             	test   %r12,%r12
  40544f:	48 63 d8             	movslq %eax,%rbx
  405452:	49 8d 34 1c          	lea    (%r12,%rbx,1),%rsi
  405456:	4c 0f 45 e6          	cmovne %rsi,%r12
  40545a:	49 01 dd             	add    %rbx,%r13
  40545d:	49 01 de             	add    %rbx,%r14
  405460:	49 01 df             	add    %rbx,%r15
  405463:	48 8b 5d 00          	mov    0x0(%rbp),%rbx
  405467:	41 ba 03 00 00 00    	mov    $0x3,%r10d
  40546d:	48 8b 75 08          	mov    0x8(%rbp),%rsi
  405471:	49 29 da             	sub    %rbx,%r10
  405474:	4f 8d 4c 15 00       	lea    0x0(%r13,%r10,1),%r9
  405479:	49 39 f1             	cmp    %rsi,%r9
  40547c:	0f 87 70 ff ff ff    	ja     4053f2 <error+0x3473>
  405482:	48 89 eb             	mov    %rbp,%rbx
  405485:	44 89 ee             	mov    %r13d,%esi
  405488:	4c 89 fd             	mov    %r15,%rbp
  40548b:	29 ee                	sub    %ebp,%esi
  40548d:	49 89 d7             	mov    %rdx,%r15
  405490:	80 f9 01             	cmp    $0x1,%cl
  405493:	49 8d 55 03          	lea    0x3(%r13),%rdx
  405497:	19 c9                	sbb    %ecx,%ecx
  405499:	83 c1 10             	add    $0x10,%ecx
  40549c:	48 89 d0             	mov    %rdx,%rax
  40549f:	eb 0f                	jmp    4054b0 <error+0x3531>
  4054a1:	49 83 ed 01          	sub    $0x1,%r13
  4054a5:	48 83 e8 01          	sub    $0x1,%rax
  4054a9:	41 8a 7d 00          	mov    0x0(%r13),%dil
  4054ad:	40 88 38             	mov    %dil,(%rax)
  4054b0:	4c 39 ed             	cmp    %r13,%rbp
  4054b3:	75 ec                	jne    4054a1 <error+0x3522>
  4054b5:	40 88 75 01          	mov    %sil,0x1(%rbp)
  4054b9:	c1 fe 08             	sar    $0x8,%esi
  4054bc:	45 84 c0             	test   %r8b,%r8b
  4054bf:	88 4d 00             	mov    %cl,0x0(%rbp)
  4054c2:	40 88 75 02          	mov    %sil,0x2(%rbp)
  4054c6:	0f 85 01 22 00 00    	jne    4076cd <error+0x574e>
  4054cc:	49 89 d5             	mov    %rdx,%r13
  4054cf:	4c 89 fa             	mov    %r15,%rdx
  4054d2:	49 89 ef             	mov    %rbp,%r15
  4054d5:	48 89 dd             	mov    %rbx,%rbp
  4054d8:	eb 60                	jmp    40553a <error+0x35bb>
  4054da:	48 81 fe 00 00 01 00 	cmp    $0x10000,%rsi
  4054e1:	0f 84 d2 22 00 00    	je     4077b9 <error+0x583a>
  4054e7:	48 01 f6             	add    %rsi,%rsi
  4054ea:	41 b8 00 00 01 00    	mov    $0x10000,%r8d
  4054f0:	48 89 df             	mov    %rbx,%rdi
  4054f3:	48 81 fe 01 00 01 00 	cmp    $0x10001,%rsi
  4054fa:	48 89 14 24          	mov    %rdx,(%rsp)
  4054fe:	49 0f 43 f0          	cmovae %r8,%rsi
  405502:	48 89 75 08          	mov    %rsi,0x8(%rbp)
  405506:	e8 25 c9 ff ff       	callq  401e30 <realloc@plt>
  40550b:	48 85 c0             	test   %rax,%rax
  40550e:	48 89 45 00          	mov    %rax,0x0(%rbp)
  405512:	48 8b 14 24          	mov    (%rsp),%rdx
  405516:	0f 84 96 22 00 00    	je     4077b2 <error+0x5833>
  40551c:	48 39 d8             	cmp    %rbx,%rax
  40551f:	74 19                	je     40553a <error+0x35bb>
  405521:	29 d8                	sub    %ebx,%eax
  405523:	4d 85 e4             	test   %r12,%r12
  405526:	48 63 c8             	movslq %eax,%rcx
  405529:	49 8d 04 0c          	lea    (%r12,%rcx,1),%rax
  40552d:	4c 0f 45 e0          	cmovne %rax,%r12
  405531:	49 01 cd             	add    %rcx,%r13
  405534:	49 01 ce             	add    %rcx,%r14
  405537:	49 01 cf             	add    %rcx,%r15
  40553a:	48 8b 5d 00          	mov    0x0(%rbp),%rbx
  40553e:	41 ba 03 00 00 00    	mov    $0x3,%r10d
  405544:	48 8b 75 08          	mov    0x8(%rbp),%rsi
  405548:	49 29 da             	sub    %rbx,%r10
  40554b:	4f 8d 4c 15 00       	lea    0x0(%r13,%r10,1),%r9
  405550:	49 39 f1             	cmp    %rsi,%r9
  405553:	77 85                	ja     4054da <error+0x355b>
  405555:	48 89 eb             	mov    %rbp,%rbx
  405558:	4c 89 fd             	mov    %r15,%rbp
  40555b:	49 89 d7             	mov    %rdx,%r15
  40555e:	49 8d 55 03          	lea    0x3(%r13),%rdx
  405562:	48 89 d0             	mov    %rdx,%rax
  405565:	eb 0f                	jmp    405576 <error+0x35f7>
  405567:	49 83 ed 01          	sub    $0x1,%r13
  40556b:	48 83 e8 01          	sub    $0x1,%rax
  40556f:	41 8a 75 00          	mov    0x0(%r13),%sil
  405573:	40 88 30             	mov    %sil,(%rax)
  405576:	4c 39 ed             	cmp    %r13,%rbp
  405579:	75 ec                	jne    405567 <error+0x35e8>
  40557b:	c6 45 00 13          	movb   $0x13,0x0(%rbp)
  40557f:	c6 45 01 03          	movb   $0x3,0x1(%rbp)
  405583:	45 31 ed             	xor    %r13d,%r13d
  405586:	c6 45 02 00          	movb   $0x0,0x2(%rbp)
  40558a:	e9 41 21 00 00       	jmpq   4076d0 <error+0x5751>
  40558f:	48 81 fe 00 00 01 00 	cmp    $0x10000,%rsi
  405596:	0f 84 1d 22 00 00    	je     4077b9 <error+0x583a>
  40559c:	48 01 f6             	add    %rsi,%rsi
  40559f:	41 bb 00 00 01 00    	mov    $0x10000,%r11d
  4055a5:	48 89 df             	mov    %rbx,%rdi
  4055a8:	48 81 fe 01 00 01 00 	cmp    $0x10001,%rsi
  4055af:	48 89 14 24          	mov    %rdx,(%rsp)
  4055b3:	48 89 4c 24 08       	mov    %rcx,0x8(%rsp)
  4055b8:	49 0f 43 f3          	cmovae %r11,%rsi
  4055bc:	49 89 76 08          	mov    %rsi,0x8(%r14)
  4055c0:	e8 6b c8 ff ff       	callq  401e30 <realloc@plt>
  4055c5:	48 85 c0             	test   %rax,%rax
  4055c8:	49 89 06             	mov    %rax,(%r14)
  4055cb:	48 8b 14 24          	mov    (%rsp),%rdx
  4055cf:	48 8b 4c 24 08       	mov    0x8(%rsp),%rcx
  4055d4:	0f 84 d8 21 00 00    	je     4077b2 <error+0x5833>
  4055da:	48 39 d8             	cmp    %rbx,%rax
  4055dd:	74 2e                	je     40560d <error+0x368e>
  4055df:	29 d8                	sub    %ebx,%eax
  4055e1:	4d 85 e4             	test   %r12,%r12
  4055e4:	48 63 d8             	movslq %eax,%rbx
  4055e7:	49 8d 04 1c          	lea    (%r12,%rbx,1),%rax
  4055eb:	4c 8d 44 1d 00       	lea    0x0(%rbp,%rbx,1),%r8
  4055f0:	49 8d 7c 1d 00       	lea    0x0(%r13,%rbx,1),%rdi
  4055f5:	4c 0f 45 e0          	cmovne %rax,%r12
  4055f9:	48 85 ed             	test   %rbp,%rbp
  4055fc:	49 0f 45 e8          	cmovne %r8,%rbp
  405600:	4d 85 ed             	test   %r13,%r13
  405603:	4c 0f 45 ef          	cmovne %rdi,%r13
  405607:	48 01 da             	add    %rbx,%rdx
  40560a:	49 01 df             	add    %rbx,%r15
  40560d:	49 8b 1e             	mov    (%r14),%rbx
  405610:	41 ba 01 00 00 00    	mov    $0x1,%r10d
  405616:	49 8b 76 08          	mov    0x8(%r14),%rsi
  40561a:	49 29 da             	sub    %rbx,%r10
  40561d:	4e 8d 0c 12          	lea    (%rdx,%r10,1),%r9
  405621:	49 39 f1             	cmp    %rsi,%r9
  405624:	0f 87 65 ff ff ff    	ja     40558f <error+0x3610>
  40562a:	4c 89 f3             	mov    %r14,%rbx
  40562d:	c6 02 03             	movb   $0x3,(%rdx)
  405630:	4d 89 fe             	mov    %r15,%r14
  405633:	48 83 c2 01          	add    $0x1,%rdx
  405637:	49 89 cf             	mov    %rcx,%r15
  40563a:	e9 91 20 00 00       	jmpq   4076d0 <error+0x5751>
  40563f:	48 3b 44 24 30       	cmp    0x30(%rsp),%rax
  405644:	75 6c                	jne    4056b2 <error+0x3733>
  405646:	e9 9c 0a 00 00       	jmpq   4060e7 <error+0x4168>
  40564b:	48 81 fe 00 00 01 00 	cmp    $0x10000,%rsi
  405652:	0f 84 61 21 00 00    	je     4077b9 <error+0x583a>
  405658:	48 01 f6             	add    %rsi,%rsi
  40565b:	b9 00 00 01 00       	mov    $0x10000,%ecx
  405660:	48 89 ef             	mov    %rbp,%rdi
  405663:	48 81 fe 01 00 01 00 	cmp    $0x10001,%rsi
  40566a:	48 89 14 24          	mov    %rdx,(%rsp)
  40566e:	48 0f 43 f1          	cmovae %rcx,%rsi
  405672:	48 89 73 08          	mov    %rsi,0x8(%rbx)
  405676:	e8 b5 c7 ff ff       	callq  401e30 <realloc@plt>
  40567b:	48 85 c0             	test   %rax,%rax
  40567e:	48 89 03             	mov    %rax,(%rbx)
  405681:	48 8b 14 24          	mov    (%rsp),%rdx
  405685:	0f 84 27 21 00 00    	je     4077b2 <error+0x5833>
  40568b:	48 39 e8             	cmp    %rbp,%rax
  40568e:	74 22                	je     4056b2 <error+0x3733>
  405690:	29 e8                	sub    %ebp,%eax
  405692:	4d 85 e4             	test   %r12,%r12
  405695:	48 63 e8             	movslq %eax,%rbp
  405698:	4d 8d 1c 2c          	lea    (%r12,%rbp,1),%r11
  40569c:	49 8d 74 2d 00       	lea    0x0(%r13,%rbp,1),%rsi
  4056a1:	4d 0f 45 e3          	cmovne %r11,%r12
  4056a5:	4d 85 ed             	test   %r13,%r13
  4056a8:	4c 0f 45 ee          	cmovne %rsi,%r13
  4056ac:	48 01 ea             	add    %rbp,%rdx
  4056af:	49 01 ee             	add    %rbp,%r14
  4056b2:	48 8b 2b             	mov    (%rbx),%rbp
  4056b5:	b8 22 00 00 00       	mov    $0x22,%eax
  4056ba:	48 8b 73 08          	mov    0x8(%rbx),%rsi
  4056be:	48 29 e8             	sub    %rbp,%rax
  4056c1:	4c 8d 04 02          	lea    (%rdx,%rax,1),%r8
  4056c5:	49 39 f0             	cmp    %rsi,%r8
  4056c8:	77 81                	ja     40564b <error+0x36cc>
  4056ca:	4c 89 f9             	mov    %r15,%rcx
  4056cd:	48 89 d5             	mov    %rdx,%rbp
  4056d0:	4d 89 f7             	mov    %r14,%r15
  4056d3:	49 89 de             	mov    %rbx,%r14
  4056d6:	eb 7e                	jmp    405756 <error+0x37d7>
  4056d8:	48 81 fe 00 00 01 00 	cmp    $0x10000,%rsi
  4056df:	0f 84 d4 20 00 00    	je     4077b9 <error+0x583a>
  4056e5:	48 01 f6             	add    %rsi,%rsi
  4056e8:	41 b9 00 00 01 00    	mov    $0x10000,%r9d
  4056ee:	48 89 df             	mov    %rbx,%rdi
  4056f1:	48 81 fe 01 00 01 00 	cmp    $0x10001,%rsi
  4056f8:	48 89 14 24          	mov    %rdx,(%rsp)
  4056fc:	48 89 4c 24 08       	mov    %rcx,0x8(%rsp)
  405701:	49 0f 43 f1          	cmovae %r9,%rsi
  405705:	49 89 76 08          	mov    %rsi,0x8(%r14)
  405709:	e8 22 c7 ff ff       	callq  401e30 <realloc@plt>
  40570e:	48 85 c0             	test   %rax,%rax
  405711:	49 89 06             	mov    %rax,(%r14)
  405714:	48 8b 14 24          	mov    (%rsp),%rdx
  405718:	48 8b 4c 24 08       	mov    0x8(%rsp),%rcx
  40571d:	0f 84 8f 20 00 00    	je     4077b2 <error+0x5833>
  405723:	48 39 d8             	cmp    %rbx,%rax
  405726:	74 2e                	je     405756 <error+0x37d7>
  405728:	29 d8                	sub    %ebx,%eax
  40572a:	4d 85 e4             	test   %r12,%r12
  40572d:	48 63 d8             	movslq %eax,%rbx
  405730:	4d 8d 1c 1c          	lea    (%r12,%rbx,1),%r11
  405734:	48 8d 74 1d 00       	lea    0x0(%rbp,%rbx,1),%rsi
  405739:	4d 8d 54 1d 00       	lea    0x0(%r13,%rbx,1),%r10
  40573e:	4d 0f 45 e3          	cmovne %r11,%r12
  405742:	48 85 ed             	test   %rbp,%rbp
  405745:	48 0f 45 ee          	cmovne %rsi,%rbp
  405749:	4d 85 ed             	test   %r13,%r13
  40574c:	4d 0f 45 ea          	cmovne %r10,%r13
  405750:	48 01 da             	add    %rbx,%rdx
  405753:	49 01 df             	add    %rbx,%r15
  405756:	49 8b 1e             	mov    (%r14),%rbx
  405759:	41 b8 01 00 00 00    	mov    $0x1,%r8d
  40575f:	49 8b 76 08          	mov    0x8(%r14),%rsi
  405763:	49 29 d8             	sub    %rbx,%r8
  405766:	4a 8d 3c 02          	lea    (%rdx,%r8,1),%rdi
  40576a:	48 39 f7             	cmp    %rsi,%rdi
  40576d:	0f 87 65 ff ff ff    	ja     4056d8 <error+0x3759>
  405773:	48 8b 84 24 98 01 00 	mov    0x198(%rsp),%rax
  40577a:	00 
  40577b:	4c 89 f3             	mov    %r14,%rbx
  40577e:	4d 89 fe             	mov    %r15,%r14
  405781:	49 89 cf             	mov    %rcx,%r15
  405784:	80 38 5e             	cmpb   $0x5e,(%rax)
  405787:	0f 94 c1             	sete   %cl
  40578a:	83 c1 04             	add    $0x4,%ecx
  40578d:	88 0a                	mov    %cl,(%rdx)
  40578f:	48 8b 84 24 98 01 00 	mov    0x198(%rsp),%rax
  405796:	00 
  405797:	80 38 5e             	cmpb   $0x5e,(%rax)
  40579a:	75 0c                	jne    4057a8 <error+0x3829>
  40579c:	48 83 c0 01          	add    $0x1,%rax
  4057a0:	48 89 84 24 98 01 00 	mov    %rax,0x198(%rsp)
  4057a7:	00 
  4057a8:	48 83 c2 01          	add    $0x1,%rdx
  4057ac:	48 89 54 24 50       	mov    %rdx,0x50(%rsp)
  4057b1:	48 8b 94 24 98 01 00 	mov    0x198(%rsp),%rdx
  4057b8:	00 
  4057b9:	48 89 94 24 f0 00 00 	mov    %rdx,0xf0(%rsp)
  4057c0:	00 
  4057c1:	4c 89 fa             	mov    %r15,%rdx
  4057c4:	4d 89 f7             	mov    %r14,%r15
  4057c7:	49 89 de             	mov    %rbx,%r14
  4057ca:	eb 76                	jmp    405842 <error+0x38c3>
  4057cc:	48 81 fe 00 00 01 00 	cmp    $0x10000,%rsi
  4057d3:	0f 84 e0 1f 00 00    	je     4077b9 <error+0x583a>
  4057d9:	48 01 f6             	add    %rsi,%rsi
  4057dc:	41 b9 00 00 01 00    	mov    $0x10000,%r9d
  4057e2:	48 89 df             	mov    %rbx,%rdi
  4057e5:	48 81 fe 01 00 01 00 	cmp    $0x10001,%rsi
  4057ec:	48 89 14 24          	mov    %rdx,(%rsp)
  4057f0:	49 0f 43 f1          	cmovae %r9,%rsi
  4057f4:	49 89 76 08          	mov    %rsi,0x8(%r14)
  4057f8:	e8 33 c6 ff ff       	callq  401e30 <realloc@plt>
  4057fd:	48 85 c0             	test   %rax,%rax
  405800:	49 89 06             	mov    %rax,(%r14)
  405803:	48 8b 14 24          	mov    (%rsp),%rdx
  405807:	0f 84 a5 1f 00 00    	je     4077b2 <error+0x5833>
  40580d:	48 39 d8             	cmp    %rbx,%rax
  405810:	74 30                	je     405842 <error+0x38c3>
  405812:	29 d8                	sub    %ebx,%eax
  405814:	4d 85 e4             	test   %r12,%r12
  405817:	48 63 d8             	movslq %eax,%rbx
  40581a:	4d 8d 1c 1c          	lea    (%r12,%rbx,1),%r11
  40581e:	48 8d 74 1d 00       	lea    0x0(%rbp,%rbx,1),%rsi
  405823:	4d 8d 54 1d 00       	lea    0x0(%r13,%rbx,1),%r10
  405828:	4d 0f 45 e3          	cmovne %r11,%r12
  40582c:	48 85 ed             	test   %rbp,%rbp
  40582f:	48 0f 45 ee          	cmovne %rsi,%rbp
  405833:	4d 85 ed             	test   %r13,%r13
  405836:	4d 0f 45 ea          	cmovne %r10,%r13
  40583a:	48 01 5c 24 50       	add    %rbx,0x50(%rsp)
  40583f:	49 01 df             	add    %rbx,%r15
  405842:	49 8b 1e             	mov    (%r14),%rbx
  405845:	bf 01 00 00 00       	mov    $0x1,%edi
  40584a:	49 8b 76 08          	mov    0x8(%r14),%rsi
  40584e:	48 29 df             	sub    %rbx,%rdi
  405851:	48 03 7c 24 50       	add    0x50(%rsp),%rdi
  405856:	48 39 f7             	cmp    %rsi,%rdi
  405859:	0f 87 6d ff ff ff    	ja     4057cc <error+0x384d>
  40585f:	4c 89 f3             	mov    %r14,%rbx
  405862:	4d 89 fe             	mov    %r15,%r14
  405865:	49 89 d7             	mov    %rdx,%r15
  405868:	48 8b 54 24 50       	mov    0x50(%rsp),%rdx
  40586d:	31 c0                	xor    %eax,%eax
  40586f:	41 b8 20 00 00 00    	mov    $0x20,%r8d
  405875:	c6 02 20             	movb   $0x20,(%rdx)
  405878:	48 83 c2 01          	add    $0x1,%rdx
  40587c:	f6 c2 01             	test   $0x1,%dl
  40587f:	48 89 54 24 28       	mov    %rdx,0x28(%rsp)
  405884:	48 89 d6             	mov    %rdx,%rsi
  405887:	74 0a                	je     405893 <error+0x3914>
  405889:	48 89 d7             	mov    %rdx,%rdi
  40588c:	41 b0 1f             	mov    $0x1f,%r8b
  40588f:	aa                   	stos   %al,%es:(%rdi)
  405890:	48 89 fe             	mov    %rdi,%rsi
  405893:	40 f6 c6 02          	test   $0x2,%sil
  405897:	74 0c                	je     4058a5 <error+0x3926>
  405899:	48 89 f7             	mov    %rsi,%rdi
  40589c:	41 83 e8 02          	sub    $0x2,%r8d
  4058a0:	66 ab                	stos   %ax,%es:(%rdi)
  4058a2:	48 89 fe             	mov    %rdi,%rsi
  4058a5:	44 89 c2             	mov    %r8d,%edx
  4058a8:	48 89 f7             	mov    %rsi,%rdi
  4058ab:	c1 ea 02             	shr    $0x2,%edx
  4058ae:	41 f6 c0 02          	test   $0x2,%r8b
  4058b2:	89 d1                	mov    %edx,%ecx
  4058b4:	f3 ab                	rep stos %eax,%es:(%rdi)
  4058b6:	48 89 fa             	mov    %rdi,%rdx
  4058b9:	74 05                	je     4058c0 <error+0x3941>
  4058bb:	66 ab                	stos   %ax,%es:(%rdi)
  4058bd:	48 89 fa             	mov    %rdi,%rdx
  4058c0:	41 80 e0 01          	and    $0x1,%r8b
  4058c4:	74 04                	je     4058ca <error+0x394b>
  4058c6:	48 89 d7             	mov    %rdx,%rdi
  4058c9:	aa                   	stos   %al,%es:(%rdi)
  4058ca:	4c 8b 4c 24 28       	mov    0x28(%rsp),%r9
  4058cf:	41 80 79 fe 05       	cmpb   $0x5,-0x2(%r9)
  4058d4:	75 10                	jne    4058e6 <error+0x3967>
  4058d6:	48 83 bc 24 38 01 00 	cmpq   $0x0,0x138(%rsp)
  4058dd:	00 00 
  4058df:	74 05                	je     4058e6 <error+0x3967>
  4058e1:	41 80 49 01 04       	orb    $0x4,0x1(%r9)
  4058e6:	4c 8b 54 24 28       	mov    0x28(%rsp),%r10
  4058eb:	4c 8b 4c 24 28       	mov    0x28(%rsp),%r9
  4058f0:	45 31 c0             	xor    %r8d,%r8d
  4058f3:	48 8b 44 24 28       	mov    0x28(%rsp),%rax
  4058f8:	4c 89 a4 24 70 01 00 	mov    %r12,0x170(%rsp)
  4058ff:	00 
  405900:	45 88 c4             	mov    %r8b,%r12b
  405903:	4c 89 b4 24 78 01 00 	mov    %r14,0x178(%rsp)
  40590a:	00 
  40590b:	48 89 ac 24 80 01 00 	mov    %rbp,0x180(%rsp)
  405912:	00 
  405913:	4d 89 ee             	mov    %r13,%r14
  405916:	49 83 c2 0b          	add    $0xb,%r10
  40591a:	49 83 c1 05          	add    $0x5,%r9
  40591e:	49 89 dd             	mov    %rbx,%r13
  405921:	48 83 c0 07          	add    $0x7,%rax
  405925:	c7 44 24 3c ff ff ff 	movl   $0xffffffff,0x3c(%rsp)
  40592c:	ff 
  40592d:	4c 89 54 24 68       	mov    %r10,0x68(%rsp)
  405932:	4c 89 8c 24 e8 00 00 	mov    %r9,0xe8(%rsp)
  405939:	00 
  40593a:	48 89 44 24 78       	mov    %rax,0x78(%rsp)
  40593f:	48 8b 6c 24 30       	mov    0x30(%rsp),%rbp
  405944:	48 8b 5c 24 28       	mov    0x28(%rsp),%rbx
  405949:	eb 08                	jmp    405953 <error+0x39d4>
  40594b:	c7 44 24 3c ff ff ff 	movl   $0xffffffff,0x3c(%rsp)
  405952:	ff 
  405953:	48 8b 94 24 98 01 00 	mov    0x198(%rsp),%rdx
  40595a:	00 
  40595b:	48 39 ea             	cmp    %rbp,%rdx
  40595e:	0f 84 83 07 00 00    	je     4060e7 <error+0x4168>
  405964:	48 8d 42 01          	lea    0x1(%rdx),%rax
  405968:	4d 85 ff             	test   %r15,%r15
  40596b:	40 8a 3a             	mov    (%rdx),%dil
  40596e:	48 89 84 24 98 01 00 	mov    %rax,0x198(%rsp)
  405975:	00 
  405976:	74 08                	je     405980 <error+0x3a01>
  405978:	40 0f b6 f7          	movzbl %dil,%esi
  40597c:	41 8a 3c 37          	mov    (%r15,%rsi,1),%dil
  405980:	40 80 ff 5c          	cmp    $0x5c,%dil
  405984:	75 59                	jne    4059df <error+0x3a60>
  405986:	80 bc 24 6f 01 00 00 	cmpb   $0x0,0x16f(%rsp)
  40598d:	00 
  40598e:	74 6a                	je     4059fa <error+0x3a7b>
  405990:	48 39 e8             	cmp    %rbp,%rax
  405993:	0f 84 4f 09 00 00    	je     4062e8 <error+0x4369>
  405999:	48 83 c0 01          	add    $0x1,%rax
  40599d:	4d 85 ff             	test   %r15,%r15
  4059a0:	40 8a 7a 01          	mov    0x1(%rdx),%dil
  4059a4:	48 89 84 24 98 01 00 	mov    %rax,0x198(%rsp)
  4059ab:	00 
  4059ac:	74 08                	je     4059b6 <error+0x3a37>
  4059ae:	44 0f b6 df          	movzbl %dil,%r11d
  4059b2:	43 8a 3c 1f          	mov    (%r15,%r11,1),%dil
  4059b6:	40 0f b6 d7          	movzbl %dil,%edx
  4059ba:	40 88 f8             	mov    %dil,%al
  4059bd:	41 b9 01 00 00 00    	mov    $0x1,%r9d
  4059c3:	c0 e8 03             	shr    $0x3,%al
  4059c6:	89 d1                	mov    %edx,%ecx
  4059c8:	44 0f b6 c0          	movzbl %al,%r8d
  4059cc:	83 e1 07             	and    $0x7,%ecx
  4059cf:	41 d3 e1             	shl    %cl,%r9d
  4059d2:	46 08 0c 03          	or     %r9b,(%rbx,%r8,1)
  4059d6:	89 54 24 3c          	mov    %edx,0x3c(%rsp)
  4059da:	e9 74 ff ff ff       	jmpq   405953 <error+0x39d4>
  4059df:	40 80 ff 5d          	cmp    $0x5d,%dil
  4059e3:	75 15                	jne    4059fa <error+0x3a7b>
  4059e5:	4c 8b 94 24 f0 00 00 	mov    0xf0(%rsp),%r10
  4059ec:	00 
  4059ed:	49 83 c2 01          	add    $0x1,%r10
  4059f1:	4c 39 d0             	cmp    %r10,%rax
  4059f4:	0f 85 40 08 00 00    	jne    40623a <error+0x42bb>
  4059fa:	40 80 ff 2d          	cmp    $0x2d,%dil
  4059fe:	75 76                	jne    405a76 <error+0x3af7>
  405a00:	45 84 e4             	test   %r12b,%r12b
  405a03:	74 1a                	je     405a1f <error+0x3aa0>
  405a05:	80 7a 01 5d          	cmpb   $0x5d,0x1(%rdx)
  405a09:	74 14                	je     405a1f <error+0x3aa0>
  405a0b:	48 8b 7c 24 18       	mov    0x18(%rsp),%rdi
  405a10:	e8 2b c1 ff ff       	callq  401b40 <free@plt>
  405a15:	b8 0b 00 00 00       	mov    $0xb,%eax
  405a1a:	e9 a6 1d 00 00       	jmpq   4077c5 <error+0x5846>
  405a1f:	48 8d 70 fe          	lea    -0x2(%rax),%rsi
  405a23:	48 3b 74 24 60       	cmp    0x60(%rsp),%rsi
  405a28:	72 06                	jb     405a30 <error+0x3ab1>
  405a2a:	80 78 fe 5b          	cmpb   $0x5b,-0x2(%rax)
  405a2e:	74 46                	je     405a76 <error+0x3af7>
  405a30:	4c 8d 58 fd          	lea    -0x3(%rax),%r11
  405a34:	4c 3b 5c 24 60       	cmp    0x60(%rsp),%r11
  405a39:	72 0c                	jb     405a47 <error+0x3ac8>
  405a3b:	80 78 fd 5b          	cmpb   $0x5b,-0x3(%rax)
  405a3f:	75 06                	jne    405a47 <error+0x3ac8>
  405a41:	80 78 fe 5e          	cmpb   $0x5e,-0x2(%rax)
  405a45:	74 2f                	je     405a76 <error+0x3af7>
  405a47:	80 7a 01 5d          	cmpb   $0x5d,0x1(%rdx)
  405a4b:	74 29                	je     405a76 <error+0x3af7>
  405a4d:	4c 8b 44 24 20       	mov    0x20(%rsp),%r8
  405a52:	8b 7c 24 3c          	mov    0x3c(%rsp),%edi
  405a56:	48 8d b4 24 98 01 00 	lea    0x198(%rsp),%rsi
  405a5d:	00 
  405a5e:	49 89 d9             	mov    %rbx,%r9
  405a61:	4c 89 f9             	mov    %r15,%rcx
  405a64:	48 89 ea             	mov    %rbp,%rdx
  405a67:	e8 d4 ec ff ff       	callq  404740 <error+0x27c1>
  405a6c:	85 c0                	test   %eax,%eax
  405a6e:	0f 84 d7 fe ff ff    	je     40594b <error+0x39cc>
  405a74:	eb 4a                	jmp    405ac0 <error+0x3b41>
  405a76:	8a 52 01             	mov    0x1(%rdx),%dl
  405a79:	80 fa 2d             	cmp    $0x2d,%dl
  405a7c:	75 59                	jne    405ad7 <error+0x3b58>
  405a7e:	80 78 01 5d          	cmpb   $0x5d,0x1(%rax)
  405a82:	48 8d 48 01          	lea    0x1(%rax),%rcx
  405a86:	74 4f                	je     405ad7 <error+0x3b58>
  405a88:	48 39 e8             	cmp    %rbp,%rax
  405a8b:	0f 84 2f 1d 00 00    	je     4077c0 <error+0x5841>
  405a91:	4c 8b 44 24 20       	mov    0x20(%rsp),%r8
  405a96:	48 8d b4 24 98 01 00 	lea    0x198(%rsp),%rsi
  405a9d:	00 
  405a9e:	48 89 8c 24 98 01 00 	mov    %rcx,0x198(%rsp)
  405aa5:	00 
  405aa6:	40 0f b6 ff          	movzbl %dil,%edi
  405aaa:	49 89 d9             	mov    %rbx,%r9
  405aad:	4c 89 f9             	mov    %r15,%rcx
  405ab0:	48 89 ea             	mov    %rbp,%rdx
  405ab3:	e8 88 ec ff ff       	callq  404740 <error+0x27c1>
  405ab8:	85 c0                	test   %eax,%eax
  405aba:	0f 84 8b fe ff ff    	je     40594b <error+0x39cc>
  405ac0:	48 8b 7c 24 18       	mov    0x18(%rsp),%rdi
  405ac5:	89 44 24 10          	mov    %eax,0x10(%rsp)
  405ac9:	e8 72 c0 ff ff       	callq  401b40 <free@plt>
  405ace:	8b 44 24 10          	mov    0x10(%rsp),%eax
  405ad2:	e9 ee 1c 00 00       	jmpq   4077c5 <error+0x5846>
  405ad7:	40 80 ff 5b          	cmp    $0x5b,%dil
  405adb:	0f 85 25 07 00 00    	jne    406206 <error+0x4287>
  405ae1:	48 83 bc 24 60 01 00 	cmpq   $0x0,0x160(%rsp)
  405ae8:	00 00 
  405aea:	0f 84 16 07 00 00    	je     406206 <error+0x4287>
  405af0:	80 fa 3a             	cmp    $0x3a,%dl
  405af3:	0f 85 b3 04 00 00    	jne    405fac <error+0x402d>
  405af9:	48 39 e8             	cmp    %rbp,%rax
  405afc:	0f 84 be 1c 00 00    	je     4077c0 <error+0x5841>
  405b02:	48 83 c0 01          	add    $0x1,%rax
  405b06:	48 39 e8             	cmp    %rbp,%rax
  405b09:	48 89 84 24 98 01 00 	mov    %rax,0x198(%rsp)
  405b10:	00 
  405b11:	0f 84 d0 05 00 00    	je     4060e7 <error+0x4168>
  405b17:	31 c0                	xor    %eax,%eax
  405b19:	48 8b 8c 24 98 01 00 	mov    0x198(%rsp),%rcx
  405b20:	00 
  405b21:	48 39 e9             	cmp    %rbp,%rcx
  405b24:	0f 84 96 1c 00 00    	je     4077c0 <error+0x5841>
  405b2a:	4c 8d 61 01          	lea    0x1(%rcx),%r12
  405b2e:	4d 85 ff             	test   %r15,%r15
  405b31:	8a 11                	mov    (%rcx),%dl
  405b33:	4c 89 a4 24 98 01 00 	mov    %r12,0x198(%rsp)
  405b3a:	00 
  405b3b:	74 07                	je     405b44 <error+0x3bc5>
  405b3d:	0f b6 fa             	movzbl %dl,%edi
  405b40:	41 8a 14 3f          	mov    (%r15,%rdi,1),%dl
  405b44:	80 fa 3a             	cmp    $0x3a,%dl
  405b47:	75 06                	jne    405b4f <error+0x3bd0>
  405b49:	80 79 01 5d          	cmpb   $0x5d,0x1(%rcx)
  405b4d:	74 24                	je     405b73 <error+0x3bf4>
  405b4f:	49 39 ec             	cmp    %rbp,%r12
  405b52:	74 1f                	je     405b73 <error+0x3bf4>
  405b54:	3c 05                	cmp    $0x5,%al
  405b56:	77 11                	ja     405b69 <error+0x3bea>
  405b58:	44 0f b6 e0          	movzbl %al,%r12d
  405b5c:	83 c0 01             	add    $0x1,%eax
  405b5f:	42 88 94 24 a0 01 00 	mov    %dl,0x1a0(%rsp,%r12,1)
  405b66:	00 
  405b67:	eb b0                	jmp    405b19 <error+0x3b9a>
  405b69:	c6 84 24 a0 01 00 00 	movb   $0x0,0x1a0(%rsp)
  405b70:	00 
  405b71:	eb a6                	jmp    405b19 <error+0x3b9a>
  405b73:	44 0f b6 c0          	movzbl %al,%r8d
  405b77:	80 fa 3a             	cmp    $0x3a,%dl
  405b7a:	42 c6 84 04 a0 01 00 	movb   $0x0,0x1a0(%rsp,%r8,1)
  405b81:	00 00 
  405b83:	0f 85 f2 03 00 00    	jne    405f7b <error+0x3ffc>
  405b89:	41 80 3c 24 5d       	cmpb   $0x5d,(%r12)
  405b8e:	0f 85 e7 03 00 00    	jne    405f7b <error+0x3ffc>
  405b94:	48 8d bc 24 a0 01 00 	lea    0x1a0(%rsp),%rdi
  405b9b:	00 
  405b9c:	be 70 c7 43 00       	mov    $0x43c770,%esi
  405ba1:	e8 aa c1 ff ff       	callq  401d50 <strcmp@plt>
  405ba6:	48 8d bc 24 a0 01 00 	lea    0x1a0(%rsp),%rdi
  405bad:	00 
  405bae:	be 76 c7 43 00       	mov    $0x43c776,%esi
  405bb3:	89 84 24 c8 00 00 00 	mov    %eax,0xc8(%rsp)
  405bba:	e8 91 c1 ff ff       	callq  401d50 <strcmp@plt>
  405bbf:	48 8d bc 24 a0 01 00 	lea    0x1a0(%rsp),%rdi
  405bc6:	00 
  405bc7:	be 7c c7 43 00       	mov    $0x43c77c,%esi
  405bcc:	89 84 24 c4 00 00 00 	mov    %eax,0xc4(%rsp)
  405bd3:	e8 78 c1 ff ff       	callq  401d50 <strcmp@plt>
  405bd8:	48 8d bc 24 a0 01 00 	lea    0x1a0(%rsp),%rdi
  405bdf:	00 
  405be0:	be 82 c7 43 00       	mov    $0x43c782,%esi
  405be5:	89 84 24 c0 00 00 00 	mov    %eax,0xc0(%rsp)
  405bec:	e8 5f c1 ff ff       	callq  401d50 <strcmp@plt>
  405bf1:	48 8d bc 24 a0 01 00 	lea    0x1a0(%rsp),%rdi
  405bf8:	00 
  405bf9:	be a7 c7 43 00       	mov    $0x43c7a7,%esi
  405bfe:	89 84 24 bc 00 00 00 	mov    %eax,0xbc(%rsp)
  405c05:	e8 46 c1 ff ff       	callq  401d50 <strcmp@plt>
  405c0a:	48 8d bc 24 a0 01 00 	lea    0x1a0(%rsp),%rdi
  405c11:	00 
  405c12:	be 88 c7 43 00       	mov    $0x43c788,%esi
  405c17:	89 84 24 b8 00 00 00 	mov    %eax,0xb8(%rsp)
  405c1e:	e8 2d c1 ff ff       	callq  401d50 <strcmp@plt>
  405c23:	48 8d bc 24 a0 01 00 	lea    0x1a0(%rsp),%rdi
  405c2a:	00 
  405c2b:	be 8e c7 43 00       	mov    $0x43c78e,%esi
  405c30:	89 84 24 b4 00 00 00 	mov    %eax,0xb4(%rsp)
  405c37:	e8 14 c1 ff ff       	callq  401d50 <strcmp@plt>
  405c3c:	48 8d bc 24 a0 01 00 	lea    0x1a0(%rsp),%rdi
  405c43:	00 
  405c44:	85 c0                	test   %eax,%eax
  405c46:	be 94 c7 43 00       	mov    $0x43c794,%esi
  405c4b:	0f 94 84 24 cf 00 00 	sete   0xcf(%rsp)
  405c52:	00 
  405c53:	89 04 24             	mov    %eax,(%rsp)
  405c56:	e8 f5 c0 ff ff       	callq  401d50 <strcmp@plt>
  405c5b:	48 8d bc 24 a0 01 00 	lea    0x1a0(%rsp),%rdi
  405c62:	00 
  405c63:	be 9a c7 43 00       	mov    $0x43c79a,%esi
  405c68:	89 84 24 b0 00 00 00 	mov    %eax,0xb0(%rsp)
  405c6f:	e8 dc c0 ff ff       	callq  401d50 <strcmp@plt>
  405c74:	48 8d bc 24 a0 01 00 	lea    0x1a0(%rsp),%rdi
  405c7b:	00 
  405c7c:	be 1f 68 42 00       	mov    $0x42681f,%esi
  405c81:	89 84 24 ac 00 00 00 	mov    %eax,0xac(%rsp)
  405c88:	e8 c3 c0 ff ff       	callq  401d50 <strcmp@plt>
  405c8d:	48 8d bc 24 a0 01 00 	lea    0x1a0(%rsp),%rdi
  405c94:	00 
  405c95:	be a0 c7 43 00       	mov    $0x43c7a0,%esi
  405c9a:	89 84 24 a8 00 00 00 	mov    %eax,0xa8(%rsp)
  405ca1:	e8 aa c0 ff ff       	callq  401d50 <strcmp@plt>
  405ca6:	48 8d bc 24 a0 01 00 	lea    0x1a0(%rsp),%rdi
  405cad:	00 
  405cae:	85 c0                	test   %eax,%eax
  405cb0:	be a6 c7 43 00       	mov    $0x43c7a6,%esi
  405cb5:	0f 94 84 24 ce 00 00 	sete   0xce(%rsp)
  405cbc:	00 
  405cbd:	89 44 24 08          	mov    %eax,0x8(%rsp)
  405cc1:	e8 8a c0 ff ff       	callq  401d50 <strcmp@plt>
  405cc6:	83 bc 24 c4 00 00 00 	cmpl   $0x0,0xc4(%rsp)
  405ccd:	00 
  405cce:	89 84 24 a4 00 00 00 	mov    %eax,0xa4(%rsp)
  405cd5:	8b 14 24             	mov    (%rsp),%edx
  405cd8:	8b 4c 24 08          	mov    0x8(%rsp),%ecx
  405cdc:	74 70                	je     405d4e <error+0x3dcf>
  405cde:	85 c9                	test   %ecx,%ecx
  405ce0:	74 6c                	je     405d4e <error+0x3dcf>
  405ce2:	85 d2                	test   %edx,%edx
  405ce4:	74 68                	je     405d4e <error+0x3dcf>
  405ce6:	83 bc 24 b8 00 00 00 	cmpl   $0x0,0xb8(%rsp)
  405ced:	00 
  405cee:	74 5e                	je     405d4e <error+0x3dcf>
  405cf0:	83 bc 24 c8 00 00 00 	cmpl   $0x0,0xc8(%rsp)
  405cf7:	00 
  405cf8:	74 54                	je     405d4e <error+0x3dcf>
  405cfa:	85 c0                	test   %eax,%eax
  405cfc:	74 50                	je     405d4e <error+0x3dcf>
  405cfe:	83 bc 24 a8 00 00 00 	cmpl   $0x0,0xa8(%rsp)
  405d05:	00 
  405d06:	74 46                	je     405d4e <error+0x3dcf>
  405d08:	83 bc 24 b0 00 00 00 	cmpl   $0x0,0xb0(%rsp)
  405d0f:	00 
  405d10:	74 3c                	je     405d4e <error+0x3dcf>
  405d12:	83 bc 24 ac 00 00 00 	cmpl   $0x0,0xac(%rsp)
  405d19:	00 
  405d1a:	74 32                	je     405d4e <error+0x3dcf>
  405d1c:	83 bc 24 b4 00 00 00 	cmpl   $0x0,0xb4(%rsp)
  405d23:	00 
  405d24:	74 28                	je     405d4e <error+0x3dcf>
  405d26:	83 bc 24 bc 00 00 00 	cmpl   $0x0,0xbc(%rsp)
  405d2d:	00 
  405d2e:	74 1e                	je     405d4e <error+0x3dcf>
  405d30:	83 bc 24 c0 00 00 00 	cmpl   $0x0,0xc0(%rsp)
  405d37:	00 
  405d38:	74 14                	je     405d4e <error+0x3dcf>
  405d3a:	48 8b 7c 24 18       	mov    0x18(%rsp),%rdi
  405d3f:	e8 fc bd ff ff       	callq  401b40 <free@plt>
  405d44:	b8 04 00 00 00       	mov    $0x4,%eax
  405d49:	e9 77 1a 00 00       	jmpq   4077c5 <error+0x5846>
  405d4e:	49 39 ec             	cmp    %rbp,%r12
  405d51:	0f 84 69 1a 00 00    	je     4077c0 <error+0x5841>
  405d57:	49 83 c4 01          	add    $0x1,%r12
  405d5b:	49 39 ec             	cmp    %rbp,%r12
  405d5e:	4c 89 a4 24 98 01 00 	mov    %r12,0x198(%rsp)
  405d65:	00 
  405d66:	0f 84 7b 03 00 00    	je     4060e7 <error+0x4168>
  405d6c:	8a 84 24 ce 00 00 00 	mov    0xce(%rsp),%al
  405d73:	0a 84 24 cf 00 00 00 	or     0xcf(%rsp),%al
  405d7a:	31 c9                	xor    %ecx,%ecx
  405d7c:	4c 89 ac 24 88 01 00 	mov    %r13,0x188(%rsp)
  405d83:	00 
  405d84:	45 31 e4             	xor    %r12d,%r12d
  405d87:	49 89 ed             	mov    %rbp,%r13
  405d8a:	89 cd                	mov    %ecx,%ebp
  405d8c:	88 84 24 37 01 00 00 	mov    %al,0x137(%rsp)
  405d93:	83 bc 24 c8 00 00 00 	cmpl   $0x0,0xc8(%rsp)
  405d9a:	00 
  405d9b:	75 0f                	jne    405dac <error+0x3e2d>
  405d9d:	e8 ee bd ff ff       	callq  401b90 <__ctype_b_loc@plt>
  405da2:	4c 8b 10             	mov    (%rax),%r10
  405da5:	43 f6 04 22 08       	testb  $0x8,(%r10,%r12,1)
  405daa:	75 4c                	jne    405df8 <error+0x3e79>
  405dac:	83 bc 24 c4 00 00 00 	cmpl   $0x0,0xc4(%rsp)
  405db3:	00 
  405db4:	75 10                	jne    405dc6 <error+0x3e47>
  405db6:	e8 d5 bd ff ff       	callq  401b90 <__ctype_b_loc@plt>
  405dbb:	48 8b 30             	mov    (%rax),%rsi
  405dbe:	42 f6 44 26 01 04    	testb  $0x4,0x1(%rsi,%r12,1)
  405dc4:	75 32                	jne    405df8 <error+0x3e79>
  405dc6:	83 bc 24 c0 00 00 00 	cmpl   $0x0,0xc0(%rsp)
  405dcd:	00 
  405dce:	75 0f                	jne    405ddf <error+0x3e60>
  405dd0:	e8 bb bd ff ff       	callq  401b90 <__ctype_b_loc@plt>
  405dd5:	4c 8b 18             	mov    (%rax),%r11
  405dd8:	43 f6 04 23 01       	testb  $0x1,(%r11,%r12,1)
  405ddd:	75 19                	jne    405df8 <error+0x3e79>
  405ddf:	83 bc 24 bc 00 00 00 	cmpl   $0x0,0xbc(%rsp)
  405de6:	00 
  405de7:	75 2a                	jne    405e13 <error+0x3e94>
  405de9:	e8 a2 bd ff ff       	callq  401b90 <__ctype_b_loc@plt>
  405dee:	48 8b 38             	mov    (%rax),%rdi
  405df1:	42 f6 04 27 02       	testb  $0x2,(%rdi,%r12,1)
  405df6:	74 1b                	je     405e13 <error+0x3e94>
  405df8:	40 88 e8             	mov    %bpl,%al
  405dfb:	40 88 e9             	mov    %bpl,%cl
  405dfe:	ba 01 00 00 00       	mov    $0x1,%edx
  405e03:	c0 e8 03             	shr    $0x3,%al
  405e06:	83 e1 07             	and    $0x7,%ecx
  405e09:	44 0f b6 c0          	movzbl %al,%r8d
  405e0d:	d3 e2                	shl    %cl,%edx
  405e0f:	42 08 14 03          	or     %dl,(%rbx,%r8,1)
  405e13:	83 bc 24 b8 00 00 00 	cmpl   $0x0,0xb8(%rsp)
  405e1a:	00 
  405e1b:	75 10                	jne    405e2d <error+0x3eae>
  405e1d:	e8 6e bd ff ff       	callq  401b90 <__ctype_b_loc@plt>
  405e22:	4c 8b 10             	mov    (%rax),%r10
  405e25:	43 f6 44 22 01 08    	testb  $0x8,0x1(%r10,%r12,1)
  405e2b:	75 4e                	jne    405e7b <error+0x3efc>
  405e2d:	83 bc 24 b4 00 00 00 	cmpl   $0x0,0xb4(%rsp)
  405e34:	00 
  405e35:	75 10                	jne    405e47 <error+0x3ec8>
  405e37:	e8 54 bd ff ff       	callq  401b90 <__ctype_b_loc@plt>
  405e3c:	48 8b 30             	mov    (%rax),%rsi
  405e3f:	66 42 83 3c 26 00    	cmpw   $0x0,(%rsi,%r12,1)
  405e45:	78 34                	js     405e7b <error+0x3efc>
  405e47:	80 bc 24 cf 00 00 00 	cmpb   $0x0,0xcf(%rsp)
  405e4e:	00 
  405e4f:	74 10                	je     405e61 <error+0x3ee2>
  405e51:	e8 3a bd ff ff       	callq  401b90 <__ctype_b_loc@plt>
  405e56:	4c 8b 18             	mov    (%rax),%r11
  405e59:	43 f6 44 23 01 02    	testb  $0x2,0x1(%r11,%r12,1)
  405e5f:	75 1a                	jne    405e7b <error+0x3efc>
  405e61:	83 bc 24 b0 00 00 00 	cmpl   $0x0,0xb0(%rsp)
  405e68:	00 
  405e69:	75 2b                	jne    405e96 <error+0x3f17>
  405e6b:	e8 20 bd ff ff       	callq  401b90 <__ctype_b_loc@plt>
  405e70:	48 8b 38             	mov    (%rax),%rdi
  405e73:	42 f6 44 27 01 40    	testb  $0x40,0x1(%rdi,%r12,1)
  405e79:	74 1b                	je     405e96 <error+0x3f17>
  405e7b:	40 88 e8             	mov    %bpl,%al
  405e7e:	40 88 e9             	mov    %bpl,%cl
  405e81:	ba 01 00 00 00       	mov    $0x1,%edx
  405e86:	c0 e8 03             	shr    $0x3,%al
  405e89:	83 e1 07             	and    $0x7,%ecx
  405e8c:	44 0f b6 c0          	movzbl %al,%r8d
  405e90:	d3 e2                	shl    %cl,%edx
  405e92:	42 08 14 03          	or     %dl,(%rbx,%r8,1)
  405e96:	83 bc 24 ac 00 00 00 	cmpl   $0x0,0xac(%rsp)
  405e9d:	00 
  405e9e:	75 0f                	jne    405eaf <error+0x3f30>
  405ea0:	e8 eb bc ff ff       	callq  401b90 <__ctype_b_loc@plt>
  405ea5:	4c 8b 10             	mov    (%rax),%r10
  405ea8:	43 f6 04 22 04       	testb  $0x4,(%r10,%r12,1)
  405ead:	75 4e                	jne    405efd <error+0x3f7e>
  405eaf:	83 bc 24 a8 00 00 00 	cmpl   $0x0,0xa8(%rsp)
  405eb6:	00 
  405eb7:	75 10                	jne    405ec9 <error+0x3f4a>
  405eb9:	e8 d2 bc ff ff       	callq  401b90 <__ctype_b_loc@plt>
  405ebe:	48 8b 30             	mov    (%rax),%rsi
  405ec1:	42 f6 44 26 01 20    	testb  $0x20,0x1(%rsi,%r12,1)
  405ec7:	75 34                	jne    405efd <error+0x3f7e>
  405ec9:	80 bc 24 ce 00 00 00 	cmpb   $0x0,0xce(%rsp)
  405ed0:	00 
  405ed1:	74 10                	je     405ee3 <error+0x3f64>
  405ed3:	e8 b8 bc ff ff       	callq  401b90 <__ctype_b_loc@plt>
  405ed8:	4c 8b 18             	mov    (%rax),%r11
  405edb:	43 f6 44 23 01 01    	testb  $0x1,0x1(%r11,%r12,1)
  405ee1:	75 1a                	jne    405efd <error+0x3f7e>
  405ee3:	83 bc 24 a4 00 00 00 	cmpl   $0x0,0xa4(%rsp)
  405eea:	00 
  405eeb:	75 2b                	jne    405f18 <error+0x3f99>
  405eed:	e8 9e bc ff ff       	callq  401b90 <__ctype_b_loc@plt>
  405ef2:	48 8b 38             	mov    (%rax),%rdi
  405ef5:	42 f6 44 27 01 10    	testb  $0x10,0x1(%rdi,%r12,1)
  405efb:	74 1b                	je     405f18 <error+0x3f99>
  405efd:	40 88 e8             	mov    %bpl,%al
  405f00:	40 88 e9             	mov    %bpl,%cl
  405f03:	ba 01 00 00 00       	mov    $0x1,%edx
  405f08:	c0 e8 03             	shr    $0x3,%al
  405f0b:	83 e1 07             	and    $0x7,%ecx
  405f0e:	44 0f b6 c0          	movzbl %al,%r8d
  405f12:	d3 e2                	shl    %cl,%edx
  405f14:	42 08 14 03          	or     %dl,(%rbx,%r8,1)
  405f18:	4d 85 ff             	test   %r15,%r15
  405f1b:	74 38                	je     405f55 <error+0x3fd6>
  405f1d:	80 bc 24 37 01 00 00 	cmpb   $0x0,0x137(%rsp)
  405f24:	00 
  405f25:	74 2e                	je     405f55 <error+0x3fd6>
  405f27:	e8 64 bc ff ff       	callq  401b90 <__ctype_b_loc@plt>
  405f2c:	4c 8b 10             	mov    (%rax),%r10
  405f2f:	43 0f b7 14 22       	movzwl (%r10,%r12,1),%edx
  405f34:	f6 c6 03             	test   $0x3,%dh
  405f37:	74 1c                	je     405f55 <error+0x3fd6>
  405f39:	41 88 e8             	mov    %bpl,%r8b
  405f3c:	40 88 e9             	mov    %bpl,%cl
  405f3f:	bf 01 00 00 00       	mov    $0x1,%edi
  405f44:	41 c0 e8 03          	shr    $0x3,%r8b
  405f48:	83 e1 07             	and    $0x7,%ecx
  405f4b:	41 0f b6 f0          	movzbl %r8b,%esi
  405f4f:	d3 e7                	shl    %cl,%edi
  405f51:	40 08 3c 33          	or     %dil,(%rbx,%rsi,1)
  405f55:	83 c5 01             	add    $0x1,%ebp
  405f58:	49 83 c4 02          	add    $0x2,%r12
  405f5c:	81 fd 00 01 00 00    	cmp    $0x100,%ebp
  405f62:	0f 85 2b fe ff ff    	jne    405d93 <error+0x3e14>
  405f68:	4c 89 ed             	mov    %r13,%rbp
  405f6b:	41 b4 01             	mov    $0x1,%r12b
  405f6e:	4c 8b ac 24 88 01 00 	mov    0x188(%rsp),%r13
  405f75:	00 
  405f76:	e9 d8 f9 ff ff       	jmpq   405953 <error+0x39d4>
